Component: ARM Compiler 5.05 update 1 (build 106) Tool: armlink [4d0efa]

==============================================================================

Section Cross References

    startup_stm32f407xx.o(RESET) refers to startup_stm32f407xx.o(STACK) for __initial_sp
    startup_stm32f407xx.o(RESET) refers to startup_stm32f407xx.o(.text) for Reset_Handler
    startup_stm32f407xx.o(RESET) refers to stm32f4xx_it.o(i.NMI_Handler) for NMI_Handler
    startup_stm32f407xx.o(RESET) refers to stm32f4xx_it.o(i.HardFault_Handler) for HardFault_Handler
    startup_stm32f407xx.o(RESET) refers to stm32f4xx_it.o(i.MemManage_Handler) for MemManage_Handler
    startup_stm32f407xx.o(RESET) refers to stm32f4xx_it.o(i.BusFault_Handler) for BusFault_Handler
    startup_stm32f407xx.o(RESET) refers to stm32f4xx_it.o(i.UsageFault_Handler) for UsageFault_Handler
    startup_stm32f407xx.o(RESET) refers to stm32f4xx_it.o(i.SVC_Handler) for SVC_Handler
    startup_stm32f407xx.o(RESET) refers to stm32f4xx_it.o(i.DebugMon_Handler) for DebugMon_Handler
    startup_stm32f407xx.o(RESET) refers to stm32f4xx_it.o(i.PendSV_Handler) for PendSV_Handler
    startup_stm32f407xx.o(RESET) refers to stm32f4xx_it.o(i.SysTick_Handler) for SysTick_Handler
    startup_stm32f407xx.o(.text) refers to system_stm32f4xx.o(i.SystemInit) for SystemInit
    startup_stm32f407xx.o(.text) refers to entry.o(.ARM.Collect$$$$00000000) for __main
    bignum.o(i.bigadd) refers to strlen.o(.text) for strlen
    bignum.o(i.bigmul) refers to memseta.o(.text) for __aeabi_memclr4
    bignum.o(i.bigmul) refers to strlen.o(.text) for strlen
    bignum.o(i.bigpow) refers to memseta.o(.text) for __aeabi_memclr4
    bignum.o(i.bigpow) refers to strlen.o(.text) for strlen
    bignum.o(i.bigpow) refers to bignum.o(i.bigmul) for bigmul
    bignum.o(i.bigsub) refers to strlen.o(.text) for strlen
    ecdsa.o(i.Alg_ECDSASignData) refers to crypto.o(i.Crypto_DeInit) for Crypto_DeInit
    ecdsa.o(i.Alg_ECDSASignData) refers to ecdsa.o(i.EC_ParaInit) for EC_ParaInit
    ecdsa.o(i.Alg_ECDSASignData) refers to ecdsa.o(i.ECCSignGenerate) for ECCSignGenerate
    ecdsa.o(i.Alg_ECDSASignData) refers to ecdsa.o(.bss) for digest_malloc
    ecdsa.o(i.Alg_GetPublicFromPrivate) refers to ecdsa.o(i.ECCGetPublickeyFromPrivateKey_OLD) for ECCGetPublickeyFromPrivateKey_OLD
    ecdsa.o(i.Alg_HashData) refers to crypto.o(i.Crypto_DeInit) for Crypto_DeInit
    ecdsa.o(i.Alg_HashData) refers to ecdsa.o(i.HASH_DigestCompute) for HASH_DigestCompute
    ecdsa.o(i.ECCGetPublickeyFromPrivateKey_OLD) refers to memseta.o(.text) for __aeabi_memclr
    ecdsa.o(i.ECCGetPublickeyFromPrivateKey_OLD) refers to crypto.o(i.Crypto_DeInit) for Crypto_DeInit
    ecdsa.o(i.ECCGetPublickeyFromPrivateKey_OLD) refers to ecdsa.o(i.RNG_init_for_sign) for RNG_init_for_sign
    ecdsa.o(i.ECCGetPublickeyFromPrivateKey_OLD) refers to crypto.o(i.ECCinitEC) for ECCinitEC
    ecdsa.o(i.ECCGetPublickeyFromPrivateKey_OLD) refers to crypto.o(i.ECCinitPoint) for ECCinitPoint
    ecdsa.o(i.ECCGetPublickeyFromPrivateKey_OLD) refers to crypto.o(i.ECCsetPointGenerator) for ECCsetPointGenerator
    ecdsa.o(i.ECCGetPublickeyFromPrivateKey_OLD) refers to crypto.o(i.ECCinitPrivKey) for ECCinitPrivKey
    ecdsa.o(i.ECCGetPublickeyFromPrivateKey_OLD) refers to crypto.o(i.ECCsetPrivKeyValue) for ECCsetPrivKeyValue
    ecdsa.o(i.ECCGetPublickeyFromPrivateKey_OLD) refers to crypto.o(i.ECCscalarMul) for ECCscalarMul
    ecdsa.o(i.ECCGetPublickeyFromPrivateKey_OLD) refers to crypto.o(i.ECCvalidatePubKey) for ECCvalidatePubKey
    ecdsa.o(i.ECCGetPublickeyFromPrivateKey_OLD) refers to crypto.o(i.ECCgetPointCoordinate) for ECCgetPointCoordinate
    ecdsa.o(i.ECCGetPublickeyFromPrivateKey_OLD) refers to crypto.o(i.ECCfreePrivKey) for ECCfreePrivKey
    ecdsa.o(i.ECCGetPublickeyFromPrivateKey_OLD) refers to crypto.o(i.ECCfreePoint) for ECCfreePoint
    ecdsa.o(i.ECCGetPublickeyFromPrivateKey_OLD) refers to crypto.o(i.ECCfreeEC) for ECCfreeEC
    ecdsa.o(i.ECCGetPublickeyFromPrivateKey_OLD) refers to crypto.o(i.RNGfree) for RNGfree
    ecdsa.o(i.ECCGetPublickeyFromPrivateKey_OLD) refers to ecdsa.o(.bss) for pub_x_malloc
    ecdsa.o(i.ECCGetPublickeyFromPrivateKey_OLD) refers to ecdsa.o(.constdata) for P_256_a
    ecdsa.o(i.ECCSignGenerate) refers to ecdsa.o(i.HASH_DigestCompute) for HASH_DigestCompute
    ecdsa.o(i.ECCSignGenerate) refers to ecdsa.o(i.RNG_init_for_sign) for RNG_init_for_sign
    ecdsa.o(i.ECCSignGenerate) refers to crypto.o(i.ECCinitEC) for ECCinitEC
    ecdsa.o(i.ECCSignGenerate) refers to crypto.o(i.ECCinitPrivKey) for ECCinitPrivKey
    ecdsa.o(i.ECCSignGenerate) refers to crypto.o(i.ECCsetPrivKeyValue) for ECCsetPrivKeyValue
    ecdsa.o(i.ECCSignGenerate) refers to crypto.o(i.ECDSAinitSign) for ECDSAinitSign
    ecdsa.o(i.ECCSignGenerate) refers to crypto.o(i.ECDSAsign) for ECDSAsign
    ecdsa.o(i.ECCSignGenerate) refers to crypto.o(i.ECDSAgetSignature) for ECDSAgetSignature
    ecdsa.o(i.ECCSignGenerate) refers to crypto.o(i.ECDSAfreeSign) for ECDSAfreeSign
    ecdsa.o(i.ECCSignGenerate) refers to crypto.o(i.ECCfreePrivKey) for ECCfreePrivKey
    ecdsa.o(i.ECCSignGenerate) refers to crypto.o(i.ECCfreePoint) for ECCfreePoint
    ecdsa.o(i.ECCSignGenerate) refers to crypto.o(i.RNGfree) for RNGfree
    ecdsa.o(i.ECCSignGenerate) refers to ecdsa.o(.bss) for preallocated_buffer
    ecdsa.o(i.EC_ParaInit) refers to ecdsa.o(.constdata) for P_256_a
    ecdsa.o(i.EC_ParaInit) refers to ecdsa.o(.bss) for pub_x_malloc
    ecdsa.o(i.HASH_DigestCompute) refers to crypto.o(i.SHA256_Init) for SHA256_Init
    ecdsa.o(i.HASH_DigestCompute) refers to crypto.o(i.SHA256_Append) for SHA256_Append
    ecdsa.o(i.HASH_DigestCompute) refers to crypto.o(i.SHA256_Finish) for SHA256_Finish
    ecdsa.o(i.RNG_init_for_sign) refers to memmovea.o(.text) for __aeabi_memcpy4
    ecdsa.o(i.RNG_init_for_sign) refers to crypto.o(i.RNGinit) for RNGinit
    ecdsa.o(i.Test_Ecc_Sign_Data) refers to memmovea.o(.text) for __aeabi_memcpy4
    ecdsa.o(i.Test_Ecc_Sign_Data) refers to crypto.o(i.Crypto_DeInit) for Crypto_DeInit
    ecdsa.o(i.Test_Ecc_Sign_Data) refers to ecdsa.o(i.EC_ParaInit) for EC_ParaInit
    ecdsa.o(i.Test_Ecc_Sign_Data) refers to ecdsa.o(i.ECCSignGenerate) for ECCSignGenerate
    ecdsa.o(i.Test_Ecc_Sign_Data) refers to ecdsa.o(.constdata) for .constdata
    ecdsa.o(i.Test_Ecc_Sign_Data) refers to ecdsa.o(.bss) for digest_malloc
    ecdsa.o(i.fun_print) refers to printf5.o(i.__0printf$5) for __2printf
    ecdsa.o(i.prinfInfo) refers to printf5.o(i.__0printf$5) for __2printf
    ecdsa.o(i.prinfInfo) refers to ecdsa.o(i.fun_print) for fun_print
    getaddress.o(i.Alg_Base58Encode) refers to showsign.o(i.HexToString) for HexToString
    getaddress.o(i.Alg_Base58Encode) refers to showsign.o(i.HexToDec) for HexToDec
    getaddress.o(i.Alg_Base58Encode) refers to showsign.o(i.DecTOAddress) for DecTOAddress
    getaddress.o(i.Alg_Base58Encode) refers to strlen.o(.text) for strlen
    getaddress.o(i.Alg_Base58Encode) refers to showsign.o(.bss) for Hex
    getaddress.o(i.Base58_25Bytes) refers to ecdsa.o(i.Alg_HashData) for Alg_HashData
    getaddress.o(i.Base58_Decode) refers to memseta.o(.text) for __aeabi_memclr4
    getaddress.o(i.Base58_Decode) refers to strlen.o(.text) for strlen
    getaddress.o(i.Base58_Decode) refers to showsign.o(i.GetIndexFromBuff) for GetIndexFromBuff
    getaddress.o(i.Base58_Decode) refers to bignum.o(i.bigpow) for bigpow
    getaddress.o(i.Base58_Decode) refers to bignum.o(i.bigmul) for bigmul
    getaddress.o(i.Base58_Decode) refers to bignum.o(i.bigadd) for bigadd
    getaddress.o(i.Base58_Decode) refers to showsign.o(i.DecToHex) for DecToHex
    getaddress.o(i.Base58_Decode) refers to showsign.o(i.StringToHex) for StringToHex
    getaddress.o(i.Base58_Decode) refers to showsign.o(.data) for Alphabet
    getaddress.o(i.Base58_Encode) refers to ecdsa.o(i.Alg_HashData) for Alg_HashData
    getaddress.o(i.Base58_Encode) refers to showsign.o(i.HexToString) for HexToString
    getaddress.o(i.Base58_Encode) refers to showsign.o(i.HexToDec) for HexToDec
    getaddress.o(i.Base58_Encode) refers to showsign.o(i.DecTOAddress) for DecTOAddress
    getaddress.o(i.Base58_Encode) refers to strlen.o(.text) for strlen
    getaddress.o(i.Base58_Encode) refers to showsign.o(.bss) for Hex
    getaddress.o(i.GetAddressFromPublickey) refers to malloc.o(i.malloc) for malloc
    getaddress.o(i.GetAddressFromPublickey) refers to memseta.o(.text) for __aeabi_memclr4
    getaddress.o(i.GetAddressFromPublickey) refers to printf5.o(i.__0printf$5) for __2printf
    getaddress.o(i.GetAddressFromPublickey) refers to ripemd160.o(i.Ripemd160) for Ripemd160
    getaddress.o(i.GetAddressFromPublickey) refers to showsign.o(i.HexToString) for HexToString
    getaddress.o(i.GetAddressFromPublickey) refers to malloc.o(i.free) for free
    getaddress.o(i.GetAddressFromPublickey) refers to getaddress.o(.constdata) for .constdata
    getaddress.o(i.GetAddressFromPublickey) refers to showsign.o(.bss) for finaladdress
    ripemd160.o(i.MDTransform) refers to ripemd160.o(i.DWORDFromLittleEndian) for DWORDFromLittleEndian
    ripemd160.o(i.MDTransform) refers to ripemd160.o(i.F) for F
    ripemd160.o(i.MDTransform) refers to ripemd160.o(i.G) for G
    ripemd160.o(i.MDTransform) refers to ripemd160.o(i.H) for H
    ripemd160.o(i.MDTransform) refers to ripemd160.o(i.I) for I
    ripemd160.o(i.MDTransform) refers to ripemd160.o(i.J) for J
    ripemd160.o(i.Ripemd160) refers to memseta.o(.text) for __aeabi_memclr4
    ripemd160.o(i.Ripemd160) refers to ripemd160.o(i._HashData) for _HashData
    ripemd160.o(i.Ripemd160) refers to ripemd160.o(i._EndHash) for _EndHash
    ripemd160.o(i.Ripemd160) refers to ripemd160.o(.bss) for _blockDWords
    ripemd160.o(i.Ripemd160) refers to ripemd160.o(.data) for _stateMD160
    ripemd160.o(i._EndHash) refers to memseta.o(.text) for __aeabi_memclr4
    ripemd160.o(i._EndHash) refers to ripemd160.o(i._HashData) for _HashData
    ripemd160.o(i._EndHash) refers to ripemd160.o(i.DWORDToLittleEndian) for DWORDToLittleEndian
    ripemd160.o(i._EndHash) refers to ripemd160.o(.data) for _count
    ripemd160.o(i._HashData) refers to ripemd160.o(i.MDTransform) for MDTransform
    ripemd160.o(i._HashData) refers to ripemd160.o(.data) for _count
    ripemd160.o(i._HashData) refers to ripemd160.o(.bss) for _buffer
    showsign.o(i.Alg_ShowSignData) refers to memseta.o(.text) for __aeabi_memclr4
    showsign.o(i.Alg_ShowSignData) refers to pow.o(i.__hardfp_pow) for __hardfp_pow
    showsign.o(i.Alg_ShowSignData) refers to dflti.o(.text) for __aeabi_i2d
    showsign.o(i.Alg_ShowSignData) refers to dmul.o(.text) for __aeabi_dmul
    showsign.o(i.Alg_ShowSignData) refers to dadd.o(.text) for __aeabi_dadd
    showsign.o(i.Alg_ShowSignData) refers to dfixul.o(.text) for __aeabi_d2ulz
    showsign.o(i.Alg_ShowSignData) refers to showsign.o(i.ReadByteLength) for ReadByteLength
    showsign.o(i.Alg_ShowSignData) refers to showsign.o(.constdata) for .constdata
    showsign.o(i.Alg_ShowSignData) refers to showsign.o(i.ReadByteLengthIndex) for ReadByteLengthIndex
    showsign.o(i.Alg_ShowSignData) refers to dfixl.o(.text) for __aeabi_d2lz
    showsign.o(i.Alg_ShowSignData) refers to printf5.o(i.__0printf$5) for __2printf
    showsign.o(i.Alg_ShowSignData) refers to showsign.o(i.GetAssetID) for GetAssetID
    showsign.o(i.Alg_ShowSignData) refers to showsign.o(i.CountMoney) for CountMoney
    showsign.o(i.Alg_ShowSignData) refers to getaddress.o(i.Base58_25Bytes) for Base58_25Bytes
    showsign.o(i.Alg_ShowSignData) refers to memmovea.o(.text) for __aeabi_memmove
    showsign.o(i.Ascii2Dec) refers to printf5.o(i.__0printf$5) for __2printf
    showsign.o(i.Convert2address) refers to printf5.o(i.__0printf$5) for __2printf
    showsign.o(i.Convert2address) refers to showsign.o(i.HexToDec) for HexToDec
    showsign.o(i.Convert2address) refers to showsign.o(i.DecTOAddress) for DecTOAddress
    showsign.o(i.Convert2address) refers to showsign.o(.bss) for Dec
    showsign.o(i.CountMoney) refers to showsign.o(i.HexToString) for HexToString
    showsign.o(i.CountMoney) refers to dflti.o(.text) for __aeabi_i2d
    showsign.o(i.CountMoney) refers to pow.o(i.__hardfp_pow) for __hardfp_pow
    showsign.o(i.CountMoney) refers to showsign.o(i.Ascii2Dec) for Ascii2Dec
    showsign.o(i.CountMoney) refers to dmul.o(.text) for __aeabi_dmul
    showsign.o(i.CountMoney) refers to dfltl.o(.text) for __aeabi_l2d
    showsign.o(i.CountMoney) refers to dadd.o(.text) for __aeabi_dadd
    showsign.o(i.CountMoney) refers to dfixl.o(.text) for __aeabi_d2lz
    showsign.o(i.DecTOAddress) refers to memseta.o(.text) for __aeabi_memclr4
    showsign.o(i.DecTOAddress) refers to memmovea.o(.text) for __aeabi_memcpy4
    showsign.o(i.DecTOAddress) refers to strlen.o(.text) for strlen
    showsign.o(i.DecTOAddress) refers to showsign.o(i.bigdiv) for bigdiv
    showsign.o(i.DecTOAddress) refers to strcpy.o(.text) for strcpy
    showsign.o(i.DecTOAddress) refers to showsign.o(i.ReverseArray) for ReverseArray
    showsign.o(i.DecTOAddress) refers to showsign.o(.constdata) for .constdata
    showsign.o(i.DecTOAddress) refers to showsign.o(.bss) for finaladdress
    showsign.o(i.DecTOAddress) refers to showsign.o(.data) for Alphabet
    showsign.o(i.DecToHex) refers to memseta.o(.text) for __aeabi_memclr4
    showsign.o(i.DecToHex) refers to showsign.o(i.Div) for Div
    showsign.o(i.DecToHex) refers to strlen.o(.text) for strlen
    showsign.o(i.DecToHex) refers to strcpy.o(.text) for strcpy
    showsign.o(i.DecToHex) refers to showsign.o(i.ReverseArray) for ReverseArray
    showsign.o(i.DecToHex) refers to showsign.o(i.convert2to16) for convert2to16
    showsign.o(i.Div) refers to strlen.o(.text) for strlen
    showsign.o(i.GetAssetID) refers to memmovea.o(.text) for __aeabi_memcpy4
    showsign.o(i.GetIndexFromBuff) refers to strlen.o(.text) for strlen
    showsign.o(i.HexToDec) refers to strlen.o(.text) for strlen
    showsign.o(i.HexToDec) refers to ctype_o.o(.text) for __rt_ctype_table
    showsign.o(i.HexToDec) refers to printf5.o(i.__0printf$5) for __2printf
    showsign.o(i.HexToDec) refers to strcpy.o(.text) for strcpy
    showsign.o(i.HexToDec) refers to showsign.o(i.strupr) for strupr
    showsign.o(i.HexToDec) refers to showsign.o(i.ReverseArray) for ReverseArray
    showsign.o(i.HexToDec) refers to showsign.o(.conststring) for .conststring
    showsign.o(i.ReadByteLength) refers to pow.o(i.__hardfp_pow) for __hardfp_pow
    showsign.o(i.ReadByteLength) refers to dflti.o(.text) for __aeabi_i2d
    showsign.o(i.ReadByteLength) refers to dmul.o(.text) for __aeabi_dmul
    showsign.o(i.ReadByteLength) refers to dadd.o(.text) for __aeabi_dadd
    showsign.o(i.ReadByteLength) refers to dfixul.o(.text) for __aeabi_d2ulz
    showsign.o(i.ReverseArray) refers to strlen.o(.text) for strlen
    showsign.o(i.ReverseString) refers to strlen.o(.text) for strlen
    showsign.o(i.StringToHex) refers to showsign.o(i.Ascii2Dec) for Ascii2Dec
    showsign.o(i.bigdiv) refers to memseta.o(.text) for __aeabi_memclr
    showsign.o(i.bigdiv) refers to strcmp.o(.text) for strcmp
    showsign.o(i.bigdiv) refers to printf5.o(i.__0printf$5) for __2printf
    showsign.o(i.bigdiv) refers to showsign.o(.bss) for final
    showsign.o(i.bigdiv) refers to showsign.o(.data) for index_add
    showsign.o(i.convert2to16) refers to strlen.o(.text) for strlen
    showsign.o(i.strlwr) refers to strlen.o(.text) for strlen
    showsign.o(i.strupr) refers to strlen.o(.text) for strlen
    stmflash.o(i.STMFLASH_Erase_Sectors) refers to stm32f4xx_hal_flash.o(i.HAL_FLASH_Unlock) for HAL_FLASH_Unlock
    stmflash.o(i.STMFLASH_Erase_Sectors) refers to stm32f4xx_hal_flash_ex.o(i.HAL_FLASHEx_Erase) for HAL_FLASHEx_Erase
    stmflash.o(i.STMFLASH_Erase_Sectors) refers to stm32f4xx_hal_flash.o(i.FLASH_WaitForLastOperation) for FLASH_WaitForLastOperation
    stmflash.o(i.STMFLASH_Erase_Sectors) refers to stm32f4xx_hal_flash.o(i.HAL_FLASH_Lock) for HAL_FLASH_Lock
    stmflash.o(i.STMFLASH_Read) refers to stmflash.o(i.STMFLASH_ReadWord) for STMFLASH_ReadWord
    stmflash.o(i.STMFLASH_Read_ByteArray) refers to stmflash.o(i.STMFLASH_ReadByte) for STMFLASH_ReadByte
    stmflash.o(i.STMFLASH_Write) refers to stm32f4xx_hal_flash.o(i.HAL_FLASH_Unlock) for HAL_FLASH_Unlock
    stmflash.o(i.STMFLASH_Write) refers to stmflash.o(i.STMFLASH_ReadWord) for STMFLASH_ReadWord
    stmflash.o(i.STMFLASH_Write) refers to stmflash.o(i.STMFLASH_GetFlashSector) for STMFLASH_GetFlashSector
    stmflash.o(i.STMFLASH_Write) refers to stm32f4xx_hal_flash_ex.o(i.HAL_FLASHEx_Erase) for HAL_FLASHEx_Erase
    stmflash.o(i.STMFLASH_Write) refers to stm32f4xx_hal_flash.o(i.FLASH_WaitForLastOperation) for FLASH_WaitForLastOperation
    stmflash.o(i.STMFLASH_Write) refers to stm32f4xx_hal_flash.o(i.HAL_FLASH_Program) for HAL_FLASH_Program
    stmflash.o(i.STMFLASH_Write) refers to stm32f4xx_hal_flash.o(i.HAL_FLASH_Lock) for HAL_FLASH_Lock
    stmflash.o(i.STMFLASH_WriteByte) refers to stm32f4xx_hal_flash.o(i.HAL_FLASH_Unlock) for HAL_FLASH_Unlock
    stmflash.o(i.STMFLASH_WriteByte) refers to stm32f4xx_hal_flash.o(i.HAL_FLASH_Program) for HAL_FLASH_Program
    stmflash.o(i.STMFLASH_WriteByte) refers to stm32f4xx_hal_flash.o(i.HAL_FLASH_Lock) for HAL_FLASH_Lock
    stmflash.o(i.STMFLASH_WriteHalfWord) refers to stm32f4xx_hal_flash.o(i.HAL_FLASH_Unlock) for HAL_FLASH_Unlock
    stmflash.o(i.STMFLASH_WriteHalfWord) refers to stm32f4xx_hal_flash.o(i.HAL_FLASH_Program) for HAL_FLASH_Program
    stmflash.o(i.STMFLASH_WriteHalfWord) refers to stm32f4xx_hal_flash.o(i.HAL_FLASH_Lock) for HAL_FLASH_Lock
    stmflash.o(i.STMFLASH_WriteWord) refers to stm32f4xx_hal_flash.o(i.HAL_FLASH_Unlock) for HAL_FLASH_Unlock
    stmflash.o(i.STMFLASH_WriteWord) refers to stm32f4xx_hal_flash.o(i.HAL_FLASH_Program) for HAL_FLASH_Program
    stmflash.o(i.STMFLASH_WriteWord) refers to stm32f4xx_hal_flash.o(i.HAL_FLASH_Lock) for HAL_FLASH_Lock
    stmflash.o(i.STMFLASH_Write_ByteArray) refers to stm32f4xx_hal_flash.o(i.HAL_FLASH_Unlock) for HAL_FLASH_Unlock
    stmflash.o(i.STMFLASH_Write_ByteArray) refers to stm32f4xx_hal_flash.o(i.HAL_FLASH_Program) for HAL_FLASH_Program
    stmflash.o(i.STMFLASH_Write_ByteArray) refers to stm32f4xx_hal_flash.o(i.HAL_FLASH_Lock) for HAL_FLASH_Lock
    system_stm32f4xx.o(i.SystemCoreClockUpdate) refers to system_stm32f4xx.o(.data) for SystemCoreClock
    system_stm32f4xx.o(i.SystemCoreClockUpdate) refers to system_stm32f4xx.o(.constdata) for AHBPrescTable
    stm32f4xx_it.o(i.SysTick_Handler) refers to stm32f4xx_hal.o(i.HAL_IncTick) for HAL_IncTick
    stm32f4xx_it.o(i.SysTick_Handler) refers to stm32f4xx_hal_cortex.o(i.HAL_SYSTICK_IRQHandler) for HAL_SYSTICK_IRQHandler
    main.o(i.MX_CRC_Init) refers to stm32f4xx_hal_crc.o(i.HAL_CRC_Init) for HAL_CRC_Init
    main.o(i.MX_CRC_Init) refers to main.o(i._Error_Handler) for _Error_Handler
    main.o(i.MX_CRC_Init) refers to main.o(.data) for hcrc
    main.o(i.MX_RNG_Init) refers to stm32f4xx_hal_rng.o(i.HAL_RNG_Init) for HAL_RNG_Init
    main.o(i.MX_RNG_Init) refers to main.o(i._Error_Handler) for _Error_Handler
    main.o(i.MX_RNG_Init) refers to main.o(.bss) for hrng
    main.o(i.SystemClock_Config) refers to stm32f4xx_hal_rcc.o(i.HAL_RCC_OscConfig) for HAL_RCC_OscConfig
    main.o(i.SystemClock_Config) refers to main.o(i._Error_Handler) for _Error_Handler
    main.o(i.SystemClock_Config) refers to stm32f4xx_hal_rcc.o(i.HAL_RCC_ClockConfig) for HAL_RCC_ClockConfig
    main.o(i.SystemClock_Config) refers to stm32f4xx_hal_rcc.o(i.HAL_RCC_GetHCLKFreq) for HAL_RCC_GetHCLKFreq
    main.o(i.SystemClock_Config) refers to stm32f4xx_hal_cortex.o(i.HAL_SYSTICK_Config) for HAL_SYSTICK_Config
    main.o(i.SystemClock_Config) refers to stm32f4xx_hal_cortex.o(i.HAL_SYSTICK_CLKSourceConfig) for HAL_SYSTICK_CLKSourceConfig
    main.o(i.SystemClock_Config) refers to stm32f4xx_hal_cortex.o(i.HAL_NVIC_SetPriority) for HAL_NVIC_SetPriority
    main.o(i.jump_to_app) refers to stm32f4xx_hal.o(i.HAL_DeInit) for HAL_DeInit
    main.o(i.jump_to_app) refers to stm32f4xx_hal_cortex.o(i.HAL_NVIC_DisableIRQ) for HAL_NVIC_DisableIRQ
    main.o(i.jump_to_app) refers to sys.o(.emb_text) for MSR_MSP
    main.o(i.jump_to_app) refers to main.o(.data) for jump2app
    main.o(i.main) refers to stm32f4xx_hal.o(i.HAL_Init) for HAL_Init
    main.o(i.main) refers to main.o(i.SystemClock_Config) for SystemClock_Config
    main.o(i.main) refers to main.o(i.MX_GPIO_Init) for MX_GPIO_Init
    main.o(i.main) refers to main.o(i.MX_CRC_Init) for MX_CRC_Init
    main.o(i.main) refers to main.o(i.MX_RNG_Init) for MX_RNG_Init
    main.o(i.main) refers to memseta.o(.text) for __aeabi_memclr4
    main.o(i.main) refers to stmflash.o(i.STMFLASH_ReadWord) for STMFLASH_ReadWord
    main.o(i.main) refers to stmflash.o(i.STMFLASH_WriteWord) for STMFLASH_WriteWord
    main.o(i.main) refers to main.o(i.jump_to_app) for jump_to_app
    main.o(i.main) refers to stmflash.o(i.STMFLASH_Read) for STMFLASH_Read
    main.o(i.main) refers to showsign.o(i.Alg_ShowSignData) for Alg_ShowSignData
    main.o(i.main) refers to ecdsa.o(i.Alg_ECDSASignData) for Alg_ECDSASignData
    main.o(i.main) refers to ecdsa.o(i.Alg_GetPublicFromPrivate) for Alg_GetPublicFromPrivate
    main.o(i.main) refers to memmovea.o(.text) for __aeabi_memmove4
    main.o(i.main) refers to stmflash.o(i.STMFLASH_WriteByte) for STMFLASH_WriteByte
    main.o(i.main) refers to stmflash.o(i.STMFLASH_Write_ByteArray) for STMFLASH_Write_ByteArray
    main.o(i.main) refers to main.o(.bss) for data_pack
    main.o(i.main) refers to main.o(.data) for pack_len
    stm32f4xx_hal_msp.o(i.HAL_MspInit) refers to stm32f4xx_hal_cortex.o(i.HAL_NVIC_SetPriorityGrouping) for HAL_NVIC_SetPriorityGrouping
    stm32f4xx_hal_msp.o(i.HAL_MspInit) refers to stm32f4xx_hal_cortex.o(i.HAL_NVIC_SetPriority) for HAL_NVIC_SetPriority
    stm32f4xx_hal_flash.o(i.FLASH_SetErrorCode) refers to stm32f4xx_hal_flash.o(.bss) for pFlash
    stm32f4xx_hal_flash.o(i.FLASH_WaitForLastOperation) refers to stm32f4xx_hal.o(i.HAL_GetTick) for HAL_GetTick
    stm32f4xx_hal_flash.o(i.FLASH_WaitForLastOperation) refers to stm32f4xx_hal_flash.o(i.FLASH_SetErrorCode) for FLASH_SetErrorCode
    stm32f4xx_hal_flash.o(i.FLASH_WaitForLastOperation) refers to stm32f4xx_hal_flash.o(.bss) for pFlash
    stm32f4xx_hal_flash.o(i.HAL_FLASH_GetError) refers to stm32f4xx_hal_flash.o(.bss) for pFlash
    stm32f4xx_hal_flash.o(i.HAL_FLASH_IRQHandler) refers to stm32f4xx_hal_flash.o(i.FLASH_SetErrorCode) for FLASH_SetErrorCode
    stm32f4xx_hal_flash.o(i.HAL_FLASH_IRQHandler) refers to stm32f4xx_hal_flash.o(i.HAL_FLASH_OperationErrorCallback) for HAL_FLASH_OperationErrorCallback
    stm32f4xx_hal_flash.o(i.HAL_FLASH_IRQHandler) refers to stm32f4xx_hal_flash.o(i.HAL_FLASH_EndOfOperationCallback) for HAL_FLASH_EndOfOperationCallback
    stm32f4xx_hal_flash.o(i.HAL_FLASH_IRQHandler) refers to stm32f4xx_hal_flash_ex.o(i.FLASH_Erase_Sector) for FLASH_Erase_Sector
    stm32f4xx_hal_flash.o(i.HAL_FLASH_IRQHandler) refers to stm32f4xx_hal_flash_ex.o(i.FLASH_FlushCaches) for FLASH_FlushCaches
    stm32f4xx_hal_flash.o(i.HAL_FLASH_IRQHandler) refers to stm32f4xx_hal_flash.o(.bss) for pFlash
    stm32f4xx_hal_flash.o(i.HAL_FLASH_OB_Launch) refers to stm32f4xx_hal_flash.o(i.FLASH_WaitForLastOperation) for FLASH_WaitForLastOperation
    stm32f4xx_hal_flash.o(i.HAL_FLASH_Program) refers to stm32f4xx_hal_flash.o(i.FLASH_WaitForLastOperation) for FLASH_WaitForLastOperation
    stm32f4xx_hal_flash.o(i.HAL_FLASH_Program) refers to stm32f4xx_hal_flash.o(i.FLASH_Program_Byte) for FLASH_Program_Byte
    stm32f4xx_hal_flash.o(i.HAL_FLASH_Program) refers to stm32f4xx_hal_flash.o(i.FLASH_Program_HalfWord) for FLASH_Program_HalfWord
    stm32f4xx_hal_flash.o(i.HAL_FLASH_Program) refers to stm32f4xx_hal_flash.o(i.FLASH_Program_Word) for FLASH_Program_Word
    stm32f4xx_hal_flash.o(i.HAL_FLASH_Program) refers to stm32f4xx_hal_flash.o(i.FLASH_Program_DoubleWord) for FLASH_Program_DoubleWord
    stm32f4xx_hal_flash.o(i.HAL_FLASH_Program) refers to stm32f4xx_hal_flash.o(.bss) for pFlash
    stm32f4xx_hal_flash.o(i.HAL_FLASH_Program_IT) refers to stm32f4xx_hal_flash.o(i.FLASH_Program_Byte) for FLASH_Program_Byte
    stm32f4xx_hal_flash.o(i.HAL_FLASH_Program_IT) refers to stm32f4xx_hal_flash.o(i.FLASH_Program_HalfWord) for FLASH_Program_HalfWord
    stm32f4xx_hal_flash.o(i.HAL_FLASH_Program_IT) refers to stm32f4xx_hal_flash.o(i.FLASH_Program_Word) for FLASH_Program_Word
    stm32f4xx_hal_flash.o(i.HAL_FLASH_Program_IT) refers to stm32f4xx_hal_flash.o(i.FLASH_Program_DoubleWord) for FLASH_Program_DoubleWord
    stm32f4xx_hal_flash.o(i.HAL_FLASH_Program_IT) refers to stm32f4xx_hal_flash.o(.bss) for pFlash
    stm32f4xx_hal_dma.o(i.DMA_CalcBaseAndBitshift) refers to stm32f4xx_hal_dma.o(.constdata) for flagBitshiftOffset
    stm32f4xx_hal_dma.o(i.HAL_DMA_Abort) refers to stm32f4xx_hal.o(i.HAL_GetTick) for HAL_GetTick
    stm32f4xx_hal_dma.o(i.HAL_DMA_DeInit) refers to stm32f4xx_hal_dma.o(i.DMA_CalcBaseAndBitshift) for DMA_CalcBaseAndBitshift
    stm32f4xx_hal_dma.o(i.HAL_DMA_IRQHandler) refers to system_stm32f4xx.o(.data) for SystemCoreClock
    stm32f4xx_hal_dma.o(i.HAL_DMA_Init) refers to stm32f4xx_hal.o(i.HAL_GetTick) for HAL_GetTick
    stm32f4xx_hal_dma.o(i.HAL_DMA_Init) refers to stm32f4xx_hal_dma.o(i.DMA_CheckFifoParam) for DMA_CheckFifoParam
    stm32f4xx_hal_dma.o(i.HAL_DMA_Init) refers to stm32f4xx_hal_dma.o(i.DMA_CalcBaseAndBitshift) for DMA_CalcBaseAndBitshift
    stm32f4xx_hal_dma.o(i.HAL_DMA_PollForTransfer) refers to stm32f4xx_hal.o(i.HAL_GetTick) for HAL_GetTick
    stm32f4xx_hal_dma.o(i.HAL_DMA_PollForTransfer) refers to stm32f4xx_hal_dma.o(i.HAL_DMA_Abort) for HAL_DMA_Abort
    stm32f4xx_hal_dma.o(i.HAL_DMA_Start) refers to stm32f4xx_hal_dma.o(i.DMA_SetConfig) for DMA_SetConfig
    stm32f4xx_hal_dma.o(i.HAL_DMA_Start_IT) refers to stm32f4xx_hal_dma.o(i.DMA_SetConfig) for DMA_SetConfig
    stm32f4xx_hal_flash_ex.o(i.FLASH_OB_DisableWRP) refers to stm32f4xx_hal_flash.o(i.FLASH_WaitForLastOperation) for FLASH_WaitForLastOperation
    stm32f4xx_hal_flash_ex.o(i.FLASH_OB_EnableWRP) refers to stm32f4xx_hal_flash.o(i.FLASH_WaitForLastOperation) for FLASH_WaitForLastOperation
    stm32f4xx_hal_flash_ex.o(i.FLASH_OB_RDP_LevelConfig) refers to stm32f4xx_hal_flash.o(i.FLASH_WaitForLastOperation) for FLASH_WaitForLastOperation
    stm32f4xx_hal_flash_ex.o(i.FLASH_OB_UserConfig) refers to stm32f4xx_hal_flash.o(i.FLASH_WaitForLastOperation) for FLASH_WaitForLastOperation
    stm32f4xx_hal_flash_ex.o(i.HAL_FLASHEx_Erase) refers to stm32f4xx_hal_flash.o(i.FLASH_WaitForLastOperation) for FLASH_WaitForLastOperation
    stm32f4xx_hal_flash_ex.o(i.HAL_FLASHEx_Erase) refers to stm32f4xx_hal_flash_ex.o(i.FLASH_MassErase) for FLASH_MassErase
    stm32f4xx_hal_flash_ex.o(i.HAL_FLASHEx_Erase) refers to stm32f4xx_hal_flash_ex.o(i.FLASH_Erase_Sector) for FLASH_Erase_Sector
    stm32f4xx_hal_flash_ex.o(i.HAL_FLASHEx_Erase) refers to stm32f4xx_hal_flash_ex.o(i.FLASH_FlushCaches) for FLASH_FlushCaches
    stm32f4xx_hal_flash_ex.o(i.HAL_FLASHEx_Erase) refers to stm32f4xx_hal_flash.o(.bss) for pFlash
    stm32f4xx_hal_flash_ex.o(i.HAL_FLASHEx_Erase_IT) refers to stm32f4xx_hal_flash_ex.o(i.FLASH_MassErase) for FLASH_MassErase
    stm32f4xx_hal_flash_ex.o(i.HAL_FLASHEx_Erase_IT) refers to stm32f4xx_hal_flash_ex.o(i.FLASH_Erase_Sector) for FLASH_Erase_Sector
    stm32f4xx_hal_flash_ex.o(i.HAL_FLASHEx_Erase_IT) refers to stm32f4xx_hal_flash.o(.bss) for pFlash
    stm32f4xx_hal_flash_ex.o(i.HAL_FLASHEx_OBGetConfig) refers to stm32f4xx_hal_flash_ex.o(i.FLASH_OB_GetWRP) for FLASH_OB_GetWRP
    stm32f4xx_hal_flash_ex.o(i.HAL_FLASHEx_OBGetConfig) refers to stm32f4xx_hal_flash_ex.o(i.FLASH_OB_GetRDP) for FLASH_OB_GetRDP
    stm32f4xx_hal_flash_ex.o(i.HAL_FLASHEx_OBGetConfig) refers to stm32f4xx_hal_flash_ex.o(i.FLASH_OB_GetUser) for FLASH_OB_GetUser
    stm32f4xx_hal_flash_ex.o(i.HAL_FLASHEx_OBGetConfig) refers to stm32f4xx_hal_flash_ex.o(i.FLASH_OB_GetBOR) for FLASH_OB_GetBOR
    stm32f4xx_hal_flash_ex.o(i.HAL_FLASHEx_OBProgram) refers to stm32f4xx_hal_flash_ex.o(i.FLASH_OB_EnableWRP) for FLASH_OB_EnableWRP
    stm32f4xx_hal_flash_ex.o(i.HAL_FLASHEx_OBProgram) refers to stm32f4xx_hal_flash_ex.o(i.FLASH_OB_DisableWRP) for FLASH_OB_DisableWRP
    stm32f4xx_hal_flash_ex.o(i.HAL_FLASHEx_OBProgram) refers to stm32f4xx_hal_flash_ex.o(i.FLASH_OB_RDP_LevelConfig) for FLASH_OB_RDP_LevelConfig
    stm32f4xx_hal_flash_ex.o(i.HAL_FLASHEx_OBProgram) refers to stm32f4xx_hal_flash_ex.o(i.FLASH_OB_UserConfig) for FLASH_OB_UserConfig
    stm32f4xx_hal_flash_ex.o(i.HAL_FLASHEx_OBProgram) refers to stm32f4xx_hal_flash_ex.o(i.FLASH_OB_BOR_LevelConfig) for FLASH_OB_BOR_LevelConfig
    stm32f4xx_hal_flash_ex.o(i.HAL_FLASHEx_OBProgram) refers to stm32f4xx_hal_flash.o(.bss) for pFlash
    stm32f4xx_hal_dma_ex.o(i.HAL_DMAEx_MultiBufferStart) refers to stm32f4xx_hal_dma_ex.o(i.DMA_MultiBufferSetConfig) for DMA_MultiBufferSetConfig
    stm32f4xx_hal_dma_ex.o(i.HAL_DMAEx_MultiBufferStart_IT) refers to stm32f4xx_hal_dma_ex.o(i.DMA_MultiBufferSetConfig) for DMA_MultiBufferSetConfig
    stm32f4xx_hal_rcc.o(i.HAL_RCC_ClockConfig) refers to stm32f4xx_hal.o(i.HAL_GetTick) for HAL_GetTick
    stm32f4xx_hal_rcc.o(i.HAL_RCC_ClockConfig) refers to stm32f4xx_hal_rcc.o(i.HAL_RCC_GetSysClockFreq) for HAL_RCC_GetSysClockFreq
    stm32f4xx_hal_rcc.o(i.HAL_RCC_ClockConfig) refers to stm32f4xx_hal.o(i.HAL_InitTick) for HAL_InitTick
    stm32f4xx_hal_rcc.o(i.HAL_RCC_ClockConfig) refers to system_stm32f4xx.o(.constdata) for AHBPrescTable
    stm32f4xx_hal_rcc.o(i.HAL_RCC_ClockConfig) refers to system_stm32f4xx.o(.data) for SystemCoreClock
    stm32f4xx_hal_rcc.o(i.HAL_RCC_GetHCLKFreq) refers to system_stm32f4xx.o(.data) for SystemCoreClock
    stm32f4xx_hal_rcc.o(i.HAL_RCC_GetPCLK1Freq) refers to stm32f4xx_hal_rcc.o(i.HAL_RCC_GetHCLKFreq) for HAL_RCC_GetHCLKFreq
    stm32f4xx_hal_rcc.o(i.HAL_RCC_GetPCLK1Freq) refers to system_stm32f4xx.o(.constdata) for APBPrescTable
    stm32f4xx_hal_rcc.o(i.HAL_RCC_GetPCLK2Freq) refers to stm32f4xx_hal_rcc.o(i.HAL_RCC_GetHCLKFreq) for HAL_RCC_GetHCLKFreq
    stm32f4xx_hal_rcc.o(i.HAL_RCC_GetPCLK2Freq) refers to system_stm32f4xx.o(.constdata) for APBPrescTable
    stm32f4xx_hal_rcc.o(i.HAL_RCC_GetSysClockFreq) refers to uldiv.o(.text) for __aeabi_uldivmod
    stm32f4xx_hal_rcc.o(i.HAL_RCC_MCOConfig) refers to stm32f4xx_hal_gpio.o(i.HAL_GPIO_Init) for HAL_GPIO_Init
    stm32f4xx_hal_rcc.o(i.HAL_RCC_NMI_IRQHandler) refers to stm32f4xx_hal_rcc.o(i.HAL_RCC_CSSCallback) for HAL_RCC_CSSCallback
    stm32f4xx_hal_rcc.o(i.HAL_RCC_OscConfig) refers to stm32f4xx_hal.o(i.HAL_GetTick) for HAL_GetTick
    stm32f4xx_hal_gpio.o(i.HAL_GPIO_EXTI_IRQHandler) refers to stm32f4xx_hal_gpio.o(i.HAL_GPIO_EXTI_Callback) for HAL_GPIO_EXTI_Callback
    stm32f4xx_hal_rcc_ex.o(i.HAL_RCCEx_PeriphCLKConfig) refers to stm32f4xx_hal.o(i.HAL_GetTick) for HAL_GetTick
    stm32f4xx_hal_rcc_ex.o(i.HAL_RCC_DeInit) refers to stm32f4xx_hal.o(i.HAL_GetTick) for HAL_GetTick
    stm32f4xx_hal_rcc_ex.o(i.HAL_RCC_DeInit) refers to stm32f4xx_hal.o(i.HAL_InitTick) for HAL_InitTick
    stm32f4xx_hal_rcc_ex.o(i.HAL_RCC_DeInit) refers to system_stm32f4xx.o(.data) for SystemCoreClock
    stm32f4xx_hal_pwr.o(i.HAL_PWR_PVD_IRQHandler) refers to stm32f4xx_hal_pwr.o(i.HAL_PWR_PVDCallback) for HAL_PWR_PVDCallback
    stm32f4xx_hal_cortex.o(i.HAL_NVIC_GetPriorityGrouping) refers to stm32f4xx_hal_cortex.o(i.NVIC_GetPriorityGrouping) for NVIC_GetPriorityGrouping
    stm32f4xx_hal_cortex.o(i.HAL_NVIC_SetPriority) refers to stm32f4xx_hal_cortex.o(i.NVIC_GetPriorityGrouping) for NVIC_GetPriorityGrouping
    stm32f4xx_hal_cortex.o(i.HAL_NVIC_SetPriority) refers to stm32f4xx_hal_cortex.o(i.NVIC_SetPriority) for NVIC_SetPriority
    stm32f4xx_hal_cortex.o(i.HAL_SYSTICK_Config) refers to stm32f4xx_hal_cortex.o(i.NVIC_SetPriority) for NVIC_SetPriority
    stm32f4xx_hal_cortex.o(i.HAL_SYSTICK_IRQHandler) refers to stm32f4xx_hal_cortex.o(i.HAL_SYSTICK_Callback) for HAL_SYSTICK_Callback
    stm32f4xx_hal_rng.o(i.HAL_RNG_DeInit) refers to stm32f4xx_hal_msp.o(i.HAL_RNG_MspDeInit) for HAL_RNG_MspDeInit
    stm32f4xx_hal_rng.o(i.HAL_RNG_GenerateRandomNumber) refers to stm32f4xx_hal.o(i.HAL_GetTick) for HAL_GetTick
    stm32f4xx_hal_rng.o(i.HAL_RNG_GetRandomNumber) refers to stm32f4xx_hal_rng.o(i.HAL_RNG_GenerateRandomNumber) for HAL_RNG_GenerateRandomNumber
    stm32f4xx_hal_rng.o(i.HAL_RNG_IRQHandler) refers to stm32f4xx_hal_rng.o(i.HAL_RNG_ErrorCallback) for HAL_RNG_ErrorCallback
    stm32f4xx_hal_rng.o(i.HAL_RNG_IRQHandler) refers to stm32f4xx_hal_rng.o(i.HAL_RNG_ReadyDataCallback) for HAL_RNG_ReadyDataCallback
    stm32f4xx_hal_rng.o(i.HAL_RNG_Init) refers to stm32f4xx_hal_msp.o(i.HAL_RNG_MspInit) for HAL_RNG_MspInit
    stm32f4xx_hal_crc.o(i.HAL_CRC_DeInit) refers to stm32f4xx_hal_msp.o(i.HAL_CRC_MspDeInit) for HAL_CRC_MspDeInit
    stm32f4xx_hal_crc.o(i.HAL_CRC_Init) refers to stm32f4xx_hal_msp.o(i.HAL_CRC_MspInit) for HAL_CRC_MspInit
    stm32f4xx_hal_pwr_ex.o(i.HAL_PWREx_ControlVoltageScaling) refers to stm32f4xx_hal.o(i.HAL_GetTick) for HAL_GetTick
    stm32f4xx_hal_pwr_ex.o(i.HAL_PWREx_DisableBkUpReg) refers to stm32f4xx_hal.o(i.HAL_GetTick) for HAL_GetTick
    stm32f4xx_hal_pwr_ex.o(i.HAL_PWREx_EnableBkUpReg) refers to stm32f4xx_hal.o(i.HAL_GetTick) for HAL_GetTick
    stm32f4xx_hal.o(i.HAL_DeInit) refers to stm32f4xx_hal.o(i.HAL_MspDeInit) for HAL_MspDeInit
    stm32f4xx_hal.o(i.HAL_Delay) refers to stm32f4xx_hal.o(i.HAL_GetTick) for HAL_GetTick
    stm32f4xx_hal.o(i.HAL_GetTick) refers to stm32f4xx_hal.o(.data) for uwTick
    stm32f4xx_hal.o(i.HAL_IncTick) refers to stm32f4xx_hal.o(.data) for uwTick
    stm32f4xx_hal.o(i.HAL_Init) refers to stm32f4xx_hal_cortex.o(i.HAL_NVIC_SetPriorityGrouping) for HAL_NVIC_SetPriorityGrouping
    stm32f4xx_hal.o(i.HAL_Init) refers to stm32f4xx_hal.o(i.HAL_InitTick) for HAL_InitTick
    stm32f4xx_hal.o(i.HAL_Init) refers to stm32f4xx_hal_msp.o(i.HAL_MspInit) for HAL_MspInit
    stm32f4xx_hal.o(i.HAL_InitTick) refers to stm32f4xx_hal_cortex.o(i.HAL_SYSTICK_Config) for HAL_SYSTICK_Config
    stm32f4xx_hal.o(i.HAL_InitTick) refers to stm32f4xx_hal_cortex.o(i.HAL_NVIC_SetPriority) for HAL_NVIC_SetPriority
    stm32f4xx_hal.o(i.HAL_InitTick) refers to system_stm32f4xx.o(.data) for SystemCoreClock
    crypto.o(i.AES128_decrypt) refers to crypto.o(.constdata) for .constdata
    crypto.o(i.AES128_encrypt) refers to crypto.o(.constdata) for .constdata
    crypto.o(i.AES128_keyschedule_dec) refers to crypto.o(i.AES128_keyschedule_enc) for AES128_keyschedule_enc
    crypto.o(i.AES128_keyschedule_dec) refers to crypto.o(.constdata) for .constdata
    crypto.o(i.AES128_keyschedule_enc) refers to crypto.o(.constdata) for .constdata
    crypto.o(i.AES192_decrypt) refers to crypto.o(.constdata) for .constdata
    crypto.o(i.AES192_encrypt) refers to crypto.o(.constdata) for .constdata
    crypto.o(i.AES192_keyschedule_dec) refers to crypto.o(i.AES192_keyschedule_enc) for AES192_keyschedule_enc
    crypto.o(i.AES192_keyschedule_dec) refers to crypto.o(.constdata) for .constdata
    crypto.o(i.AES192_keyschedule_enc) refers to crypto.o(.constdata) for .constdata
    crypto.o(i.AES256_decrypt) refers to crypto.o(.constdata) for .constdata
    crypto.o(i.AES256_encrypt) refers to crypto.o(.constdata) for .constdata
    crypto.o(i.AES256_keyschedule_dec) refers to crypto.o(i.AES256_keyschedule_enc) for AES256_keyschedule_enc
    crypto.o(i.AES256_keyschedule_dec) refers to crypto.o(.constdata) for .constdata
    crypto.o(i.AES256_keyschedule_enc) refers to crypto.o(.constdata) for .constdata
    crypto.o(i.AES_CBC_Decrypt_Append) refers to crypto.o(i.AES128_decrypt) for AES128_decrypt
    crypto.o(i.AES_CBC_Decrypt_Append) refers to crypto.o(i.AES192_decrypt) for AES192_decrypt
    crypto.o(i.AES_CBC_Decrypt_Append) refers to crypto.o(i.AES256_decrypt) for AES256_decrypt
    crypto.o(i.AES_CBC_Decrypt_Init) refers to crypto.o(i.AESstdInit) for AESstdInit
    crypto.o(i.AES_CBC_Encrypt_Append) refers to crypto.o(i.AES128_encrypt) for AES128_encrypt
    crypto.o(i.AES_CBC_Encrypt_Append) refers to crypto.o(i.AES192_encrypt) for AES192_encrypt
    crypto.o(i.AES_CBC_Encrypt_Append) refers to crypto.o(i.AES256_encrypt) for AES256_encrypt
    crypto.o(i.AES_CBC_Encrypt_Init) refers to crypto.o(i.AESstdInit) for AESstdInit
    crypto.o(i.AES_CCM_Decrypt_Append) refers to crypto.o(i.AES128_encrypt) for AES128_encrypt
    crypto.o(i.AES_CCM_Decrypt_Append) refers to crypto.o(i.AES192_encrypt) for AES192_encrypt
    crypto.o(i.AES_CCM_Decrypt_Append) refers to crypto.o(i.AES256_encrypt) for AES256_encrypt
    crypto.o(i.AES_CCM_Decrypt_Finish) refers to crypto.o(i.AES128_encrypt) for AES128_encrypt
    crypto.o(i.AES_CCM_Decrypt_Finish) refers to crypto.o(i.AES192_encrypt) for AES192_encrypt
    crypto.o(i.AES_CCM_Decrypt_Finish) refers to crypto.o(i.AES256_encrypt) for AES256_encrypt
    crypto.o(i.AES_CCM_Decrypt_Init) refers to crypto.o(i.AES_CCM_Encrypt_Init) for AES_CCM_Encrypt_Init
    crypto.o(i.AES_CCM_Encrypt_Append) refers to crypto.o(i.AES128_encrypt) for AES128_encrypt
    crypto.o(i.AES_CCM_Encrypt_Append) refers to crypto.o(i.AES192_encrypt) for AES192_encrypt
    crypto.o(i.AES_CCM_Encrypt_Append) refers to crypto.o(i.AES256_encrypt) for AES256_encrypt
    crypto.o(i.AES_CCM_Encrypt_Finish) refers to crypto.o(i.AES128_encrypt) for AES128_encrypt
    crypto.o(i.AES_CCM_Encrypt_Finish) refers to crypto.o(i.AES192_encrypt) for AES192_encrypt
    crypto.o(i.AES_CCM_Encrypt_Finish) refers to crypto.o(i.AES256_encrypt) for AES256_encrypt
    crypto.o(i.AES_CCM_Encrypt_Init) refers to crypto.o(i.AES128_keyschedule_enc) for AES128_keyschedule_enc
    crypto.o(i.AES_CCM_Encrypt_Init) refers to crypto.o(i.AES192_keyschedule_enc) for AES192_keyschedule_enc
    crypto.o(i.AES_CCM_Encrypt_Init) refers to crypto.o(i.AES256_keyschedule_enc) for AES256_keyschedule_enc
    crypto.o(i.AES_CCM_Encrypt_Init) refers to crypto.o(i.AES128_encrypt) for AES128_encrypt
    crypto.o(i.AES_CCM_Encrypt_Init) refers to crypto.o(i.AES192_encrypt) for AES192_encrypt
    crypto.o(i.AES_CCM_Encrypt_Init) refers to crypto.o(i.AES256_encrypt) for AES256_encrypt
    crypto.o(i.AES_CCM_Header_Append) refers to crypto.o(i.AES128_encrypt) for AES128_encrypt
    crypto.o(i.AES_CCM_Header_Append) refers to crypto.o(i.AES192_encrypt) for AES192_encrypt
    crypto.o(i.AES_CCM_Header_Append) refers to crypto.o(i.AES256_encrypt) for AES256_encrypt
    crypto.o(i.AES_CMAC_Decrypt_Append) refers to crypto.o(i.AES_CMAC_Encrypt_Append) for AES_CMAC_Encrypt_Append
    crypto.o(i.AES_CMAC_Decrypt_Finish) refers to crypto.o(i.AES_CMAC_Encrypt_Append) for AES_CMAC_Encrypt_Append
    crypto.o(i.AES_CMAC_Decrypt_Init) refers to crypto.o(i.AESstdInit) for AESstdInit
    crypto.o(i.AES_CMAC_Encrypt_Append) refers to crypto.o(i.AES128_encrypt) for AES128_encrypt
    crypto.o(i.AES_CMAC_Encrypt_Append) refers to crypto.o(i.AES192_encrypt) for AES192_encrypt
    crypto.o(i.AES_CMAC_Encrypt_Append) refers to crypto.o(i.AES256_encrypt) for AES256_encrypt
    crypto.o(i.AES_CMAC_Encrypt_Finish) refers to crypto.o(i.AES_CMAC_Encrypt_Append) for AES_CMAC_Encrypt_Append
    crypto.o(i.AES_CMAC_Encrypt_Init) refers to crypto.o(i.AESstdInit) for AESstdInit
    crypto.o(i.AES_CTR_Decrypt_Append) refers to crypto.o(i.AES_CTR_Encrypt_Append) for AES_CTR_Encrypt_Append
    crypto.o(i.AES_CTR_Decrypt_Init) refers to crypto.o(i.AESstdInit) for AESstdInit
    crypto.o(i.AES_CTR_Encrypt_Append) refers to crypto.o(i.AES128_encrypt) for AES128_encrypt
    crypto.o(i.AES_CTR_Encrypt_Append) refers to crypto.o(i.AES192_encrypt) for AES192_encrypt
    crypto.o(i.AES_CTR_Encrypt_Append) refers to crypto.o(i.AES256_encrypt) for AES256_encrypt
    crypto.o(i.AES_CTR_Encrypt_Init) refers to crypto.o(i.AESstdInit) for AESstdInit
    crypto.o(i.AES_ECB_Decrypt_Append) refers to crypto.o(i.AES128_decrypt) for AES128_decrypt
    crypto.o(i.AES_ECB_Decrypt_Append) refers to crypto.o(i.AES192_decrypt) for AES192_decrypt
    crypto.o(i.AES_ECB_Decrypt_Append) refers to crypto.o(i.AES256_decrypt) for AES256_decrypt
    crypto.o(i.AES_ECB_Decrypt_Init) refers to crypto.o(i.AESstdInit) for AESstdInit
    crypto.o(i.AES_ECB_Encrypt_Append) refers to crypto.o(i.AES128_encrypt) for AES128_encrypt
    crypto.o(i.AES_ECB_Encrypt_Append) refers to crypto.o(i.AES192_encrypt) for AES192_encrypt
    crypto.o(i.AES_ECB_Encrypt_Append) refers to crypto.o(i.AES256_encrypt) for AES256_encrypt
    crypto.o(i.AES_ECB_Encrypt_Init) refers to crypto.o(i.AESstdInit) for AESstdInit
    crypto.o(i.AES_GCM_Decrypt_Append) refers to crypto.o(i.AESgcmAppend) for AESgcmAppend
    crypto.o(i.AES_GCM_Decrypt_Finish) refers to crypto.o(i.AESgcmFinal) for AESgcmFinal
    crypto.o(i.AES_GCM_Decrypt_Init) refers to crypto.o(i.AES_GCM_Encrypt_Init) for AES_GCM_Encrypt_Init
    crypto.o(i.AES_GCM_Encrypt_Append) refers to crypto.o(i.AESgcmAppend) for AESgcmAppend
    crypto.o(i.AES_GCM_Encrypt_Finish) refers to crypto.o(i.AESgcmFinal) for AESgcmFinal
    crypto.o(i.AES_GCM_Encrypt_Init) refers to crypto.o(i.AES128_keyschedule_enc) for AES128_keyschedule_enc
    crypto.o(i.AES_GCM_Encrypt_Init) refers to crypto.o(i.AES192_keyschedule_enc) for AES192_keyschedule_enc
    crypto.o(i.AES_GCM_Encrypt_Init) refers to crypto.o(i.AES256_keyschedule_enc) for AES256_keyschedule_enc
    crypto.o(i.AES_GCM_Encrypt_Init) refers to crypto.o(i.AES128_encrypt) for AES128_encrypt
    crypto.o(i.AES_GCM_Encrypt_Init) refers to crypto.o(i.AES192_encrypt) for AES192_encrypt
    crypto.o(i.AES_GCM_Encrypt_Init) refers to crypto.o(i.AES256_encrypt) for AES256_encrypt
    crypto.o(i.AES_GCM_Encrypt_Init) refers to crypto.o(.constdata) for .constdata
    crypto.o(i.AES_GCM_Header_Append) refers to crypto.o(i.gfmul) for gfmul
    crypto.o(i.AES_KeyWrap_Decrypt_Append) refers to memseta.o(.text) for __aeabi_memclr4
    crypto.o(i.AES_KeyWrap_Decrypt_Append) refers to crypto.o(i.AES128_decrypt) for AES128_decrypt
    crypto.o(i.AES_KeyWrap_Decrypt_Append) refers to crypto.o(i.AES192_decrypt) for AES192_decrypt
    crypto.o(i.AES_KeyWrap_Decrypt_Append) refers to crypto.o(i.AES256_decrypt) for AES256_decrypt
    crypto.o(i.AES_KeyWrap_Decrypt_Init) refers to crypto.o(i.AESstdInit) for AESstdInit
    crypto.o(i.AES_KeyWrap_Encrypt_Append) refers to memseta.o(.text) for __aeabi_memclr4
    crypto.o(i.AES_KeyWrap_Encrypt_Append) refers to crypto.o(i.AES128_encrypt) for AES128_encrypt
    crypto.o(i.AES_KeyWrap_Encrypt_Append) refers to crypto.o(i.AES192_encrypt) for AES192_encrypt
    crypto.o(i.AES_KeyWrap_Encrypt_Append) refers to crypto.o(i.AES256_encrypt) for AES256_encrypt
    crypto.o(i.AES_KeyWrap_Encrypt_Init) refers to crypto.o(i.AESstdInit) for AESstdInit
    crypto.o(i.AESgcmAppend) refers to crypto.o(i.gfmul) for gfmul
    crypto.o(i.AESgcmAppend) refers to crypto.o(i.AES128_encrypt) for AES128_encrypt
    crypto.o(i.AESgcmAppend) refers to crypto.o(i.AES192_encrypt) for AES192_encrypt
    crypto.o(i.AESgcmAppend) refers to crypto.o(i.AES256_encrypt) for AES256_encrypt
    crypto.o(i.AESgcmFinal) refers to crypto.o(i.gfmul) for gfmul
    crypto.o(i.AESgcmFinal) refers to crypto.o(i.AES128_encrypt) for AES128_encrypt
    crypto.o(i.AESgcmFinal) refers to crypto.o(i.AES192_encrypt) for AES192_encrypt
    crypto.o(i.AESgcmFinal) refers to crypto.o(i.AES256_encrypt) for AES256_encrypt
    crypto.o(i.AESstdInit) refers to crypto.o(i.AES128_keyschedule_enc) for AES128_keyschedule_enc
    crypto.o(i.AESstdInit) refers to crypto.o(i.AES192_keyschedule_enc) for AES192_keyschedule_enc
    crypto.o(i.AESstdInit) refers to crypto.o(i.AES256_keyschedule_enc) for AES256_keyschedule_enc
    crypto.o(i.AESstdInit) refers to crypto.o(i.AES256_keyschedule_dec) for AES256_keyschedule_dec
    crypto.o(i.AESstdInit) refers to crypto.o(i.AES128_keyschedule_dec) for AES128_keyschedule_dec
    crypto.o(i.AESstdInit) refers to crypto.o(i.AES192_keyschedule_dec) for AES192_keyschedule_dec
    crypto.o(i.ARC4_Decrypt_Append) refers to crypto.o(i.ARC4_Encrypt_Append) for ARC4_Encrypt_Append
    crypto.o(i.AddBig) refers to crypto.o(i.StAllocBig) for StAllocBig
    crypto.o(i.AddBig) refers to crypto.o(i.CompareBig) for CompareBig
    crypto.o(i.AddBig) refers to crypto.o(i.CopyBig) for CopyBig
    crypto.o(i.AddBig) refers to crypto.o(i.Sub_Moduli_Big) for Sub_Moduli_Big
    crypto.o(i.AddBig) refers to crypto.o(i.Add_Moduli_Big) for Add_Moduli_Big
    crypto.o(i.AddBig) refers to crypto.o(i.SetZeroBig) for SetZeroBig
    crypto.o(i.AddBig) refers to crypto.o(i.InitBig) for InitBig
    crypto.o(i.Add_Moduli_Big) refers to crypto.o(i.CopyBig) for CopyBig
    crypto.o(i.Big_to_fixedW8) refers to crypto.o(i.Big_to_W8) for Big_to_W8
    crypto.o(i.Crypto_DeInit) refers to stm32f4xx_rcc.o(i.RCC_AHB1PeriphClockCmd) for RCC_AHB1PeriphClockCmd
    crypto.o(i.DES_CBC_Decrypt_Append) refers to crypto.o(i.desfunc) for desfunc
    crypto.o(i.DES_CBC_Decrypt_Init) refers to crypto.o(i.DESstdInit) for DESstdInit
    crypto.o(i.DES_CBC_Encrypt_Append) refers to crypto.o(i.desfunc) for desfunc
    crypto.o(i.DES_CBC_Encrypt_Init) refers to crypto.o(i.DESstdInit) for DESstdInit
    crypto.o(i.DES_ECB_Decrypt_Append) refers to crypto.o(i.desfunc) for desfunc
    crypto.o(i.DES_ECB_Decrypt_Init) refers to crypto.o(i.DESstdInit) for DESstdInit
    crypto.o(i.DES_ECB_Encrypt_Append) refers to crypto.o(i.desfunc) for desfunc
    crypto.o(i.DES_ECB_Encrypt_Init) refers to crypto.o(i.DESstdInit) for DESstdInit
    crypto.o(i.DESstdInit) refers to crypto.o(i.deskey) for deskey
    crypto.o(i.DRBG_AES128_Block_cipher_df) refers to memmovea.o(.text) for __aeabi_memcpy4
    crypto.o(i.DRBG_AES128_Block_cipher_df) refers to crypto.o(i.AES128_encrypt) for AES128_encrypt
    crypto.o(i.DRBG_AES128_Block_cipher_df) refers to crypto.o(i.AES128_keyschedule_enc) for AES128_keyschedule_enc
    crypto.o(i.DRBG_AES128_Block_cipher_df) refers to crypto.o(.constdata) for .constdata
    crypto.o(i.DRBG_AES128_Update) refers to crypto.o(i.AES128_encrypt) for AES128_encrypt
    crypto.o(i.ECCcopyPoint) refers to crypto.o(i.CopyBig) for CopyBig
    crypto.o(i.ECCfreeEC) refers to crypto.o(i.StFreeBig) for StFreeBig
    crypto.o(i.ECCfreePoint) refers to crypto.o(i.StFreeBig) for StFreeBig
    crypto.o(i.ECCfreePrivKey) refers to crypto.o(i.StFreeBig) for StFreeBig
    crypto.o(i.ECCgetPointCoordinate) refers to crypto.o(i.Big_to_fixedW8) for Big_to_fixedW8
    crypto.o(i.ECCgetPrivKeyValue) refers to crypto.o(i.Big_to_fixedW8) for Big_to_fixedW8
    crypto.o(i.ECCinitEC) refers to crypto.o(i.StAllocBig) for StAllocBig
    crypto.o(i.ECCinitEC) refers to crypto.o(i.W8_to_Big) for W8_to_Big
    crypto.o(i.ECCinitEC) refers to crypto.o(i.StFreeBig) for StFreeBig
    crypto.o(i.ECCinitPoint) refers to crypto.o(i.StAllocBig) for StAllocBig
    crypto.o(i.ECCinitPoint) refers to crypto.o(i.StFreeBig) for StFreeBig
    crypto.o(i.ECCinitPoint) refers to crypto.o(i.InitBig) for InitBig
    crypto.o(i.ECCinitPrivKey) refers to crypto.o(i.StAllocBig) for StAllocBig
    crypto.o(i.ECCinitPrivKey) refers to crypto.o(i.InitBig) for InitBig
    crypto.o(i.ECCkeyGen) refers to crypto.o(i.CountBits) for CountBits
    crypto.o(i.ECCkeyGen) refers to crypto.o(i.RNGgenBytes) for RNGgenBytes
    crypto.o(i.ECCkeyGen) refers to crypto.o(i.CompareBig) for CompareBig
    crypto.o(i.ECCkeyGen) refers to crypto.o(i.ECCinitPoint) for ECCinitPoint
    crypto.o(i.ECCkeyGen) refers to crypto.o(i.ECCsetPointGenerator) for ECCsetPointGenerator
    crypto.o(i.ECCkeyGen) refers to crypto.o(i.ECCscalarMul) for ECCscalarMul
    crypto.o(i.ECCkeyGen) refers to crypto.o(i.ECCfreePoint) for ECCfreePoint
    crypto.o(i.ECCpoint2Monty) refers to crypto.o(i.MontyMul) for MontyMul
    crypto.o(i.ECCpointFromMonty) refers to crypto.o(i.MontyExit) for MontyExit
    crypto.o(i.ECCscalarMul) refers to crypto.o(i.MontyInit) for MontyInit
    crypto.o(i.ECCscalarMul) refers to crypto.o(i.NAF_Binary_PointMul) for NAF_Binary_PointMul
    crypto.o(i.ECCscalarMul) refers to crypto.o(i.MontyKillAll) for MontyKillAll
    crypto.o(i.ECCscalarMul) refers to crypto.o(i.Normalize) for Normalize
    crypto.o(i.ECCsetPointCoordinate) refers to crypto.o(i.W8_to_Big) for W8_to_Big
    crypto.o(i.ECCsetPointGenerator) refers to crypto.o(i.CopyBig) for CopyBig
    crypto.o(i.ECCsetPointGenerator) refers to crypto.o(i.InitBig) for InitBig
    crypto.o(i.ECCsetPrivKeyValue) refers to crypto.o(i.W8_to_Big) for W8_to_Big
    crypto.o(i.ECCsymmetricPoint) refers to crypto.o(i.ECCcopyPoint) for ECCcopyPoint
    crypto.o(i.ECCsymmetricPoint) refers to crypto.o(i.SubBig) for SubBig
    crypto.o(i.ECCvalidatePubKey) refers to crypto.o(i.ECCinitPoint) for ECCinitPoint
    crypto.o(i.ECCvalidatePubKey) refers to crypto.o(i.CompareBig) for CompareBig
    crypto.o(i.ECCvalidatePubKey) refers to crypto.o(i.ECCcopyPoint) for ECCcopyPoint
    crypto.o(i.ECCvalidatePubKey) refers to crypto.o(i.MontyInit) for MontyInit
    crypto.o(i.ECCvalidatePubKey) refers to crypto.o(i.StAllocBig) for StAllocBig
    crypto.o(i.ECCvalidatePubKey) refers to crypto.o(i.MontyMul) for MontyMul
    crypto.o(i.ECCvalidatePubKey) refers to crypto.o(i.CopyBig) for CopyBig
    crypto.o(i.ECCvalidatePubKey) refers to crypto.o(i.ModularAddBig) for ModularAddBig
    crypto.o(i.ECCvalidatePubKey) refers to crypto.o(i.MontyKillAll) for MontyKillAll
    crypto.o(i.ECCvalidatePubKey) refers to crypto.o(i.ECCfreePoint) for ECCfreePoint
    crypto.o(i.ECDSAfreeSign) refers to crypto.o(i.StFreeBig) for StFreeBig
    crypto.o(i.ECDSAgetSignature) refers to crypto.o(i.Big_to_fixedW8) for Big_to_fixedW8
    crypto.o(i.ECDSAinitSign) refers to crypto.o(i.StAllocBig) for StAllocBig
    crypto.o(i.ECDSAinitSign) refers to crypto.o(i.StFreeBig) for StFreeBig
    crypto.o(i.ECDSAsetSignature) refers to crypto.o(i.W8_to_Big) for W8_to_Big
    crypto.o(i.ECDSAsign) refers to crypto.o(i.StAllocBig) for StAllocBig
    crypto.o(i.ECDSAsign) refers to crypto.o(i.ECCinitPoint) for ECCinitPoint
    crypto.o(i.ECDSAsign) refers to crypto.o(i.ECCsetPointGenerator) for ECCsetPointGenerator
    crypto.o(i.ECDSAsign) refers to crypto.o(i.MontyInit) for MontyInit
    crypto.o(i.ECDSAsign) refers to crypto.o(i.CountBits) for CountBits
    crypto.o(i.ECDSAsign) refers to crypto.o(i.RNGgenBytes) for RNGgenBytes
    crypto.o(i.ECDSAsign) refers to crypto.o(i.CompareBig) for CompareBig
    crypto.o(i.ECDSAsign) refers to crypto.o(i.NAF_Binary_PointMul) for NAF_Binary_PointMul
    crypto.o(i.ECDSAsign) refers to crypto.o(i.Normalize) for Normalize
    crypto.o(i.ECDSAsign) refers to crypto.o(i.AddBig) for AddBig
    crypto.o(i.ECDSAsign) refers to crypto.o(i.SubBig) for SubBig
    crypto.o(i.ECDSAsign) refers to crypto.o(i.MontyKillAll) for MontyKillAll
    crypto.o(i.ECDSAsign) refers to crypto.o(i.ECCfreePoint) for ECCfreePoint
    crypto.o(i.ECDSAsign) refers to crypto.o(i.ModularInvBig) for ModularInvBig
    crypto.o(i.ECDSAsign) refers to crypto.o(i.CopyBig) for CopyBig
    crypto.o(i.ECDSAsign) refers to crypto.o(i.MontyMul) for MontyMul
    crypto.o(i.ECDSAsign) refers to crypto.o(i.W8_to_Big) for W8_to_Big
    crypto.o(i.ECDSAsign) refers to crypto.o(i.MontyExit) for MontyExit
    crypto.o(i.ECDSAverify) refers to crypto.o(i.CompareBig) for CompareBig
    crypto.o(i.ECDSAverify) refers to crypto.o(i.StAllocBig) for StAllocBig
    crypto.o(i.ECDSAverify) refers to crypto.o(i.CountBits) for CountBits
    crypto.o(i.ECDSAverify) refers to crypto.o(i.W8_to_Big) for W8_to_Big
    crypto.o(i.ECDSAverify) refers to crypto.o(i.RightShift) for RightShift
    crypto.o(i.ECDSAverify) refers to crypto.o(i.ModularInvBig) for ModularInvBig
    crypto.o(i.ECDSAverify) refers to crypto.o(i.MontyInit) for MontyInit
    crypto.o(i.ECDSAverify) refers to crypto.o(i.MontyMul) for MontyMul
    crypto.o(i.ECDSAverify) refers to crypto.o(i.MontyKillAll) for MontyKillAll
    crypto.o(i.ECDSAverify) refers to crypto.o(i.ECCinitPoint) for ECCinitPoint
    crypto.o(i.ECDSAverify) refers to crypto.o(i.ECCsetPointGenerator) for ECCsetPointGenerator
    crypto.o(i.ECDSAverify) refers to crypto.o(i.NAF_Binary_PointMul) for NAF_Binary_PointMul
    crypto.o(i.ECDSAverify) refers to crypto.o(i.MontyJacProjAddPoints) for MontyJacProjAddPoints
    crypto.o(i.ECDSAverify) refers to crypto.o(i.Normalize) for Normalize
    crypto.o(i.ECDSAverify) refers to crypto.o(i.SubBig) for SubBig
    crypto.o(i.ECDSAverify) refers to crypto.o(i.ECCfreePoint) for ECCfreePoint
    crypto.o(i.FastDivInnerBase) refers to crypto.o(i.SetZeroBig) for SetZeroBig
    crypto.o(i.GenRndBN) refers to crypto.o(i.RNGgenBytes) for RNGgenBytes
    crypto.o(i.GenRndBNmodN) refers to crypto.o(i.CountBits) for CountBits
    crypto.o(i.GenRndBNmodN) refers to crypto.o(i.RNGgenBytes) for RNGgenBytes
    crypto.o(i.GenRndBNmodN) refers to crypto.o(i.CompareBig) for CompareBig
    crypto.o(i.HMAC_MD5_Append) refers to crypto.o(i.crl_u_MD5_Update) for crl_u_MD5_Update
    crypto.o(i.HMAC_MD5_Finish) refers to crypto.o(i.MD5_Finish) for MD5_Finish
    crypto.o(i.HMAC_MD5_Finish) refers to crypto.o(i.crl_u_MD5_Update) for crl_u_MD5_Update
    crypto.o(i.HMAC_MD5_Init) refers to crypto.o(i.crl_u_MD5_Update) for crl_u_MD5_Update
    crypto.o(i.HMAC_MD5_Init) refers to crypto.o(i.MD5_Finish) for MD5_Finish
    crypto.o(i.HMAC_SHA1_Append) refers to crypto.o(i.SHA1_Append) for SHA1_Append
    crypto.o(i.HMAC_SHA1_Finish) refers to crypto.o(i.SHA1_Finish) for SHA1_Finish
    crypto.o(i.HMAC_SHA1_Finish) refers to crypto.o(i.SHA1_Append) for SHA1_Append
    crypto.o(i.HMAC_SHA1_Init) refers to crypto.o(i.SHA1_Append) for SHA1_Append
    crypto.o(i.HMAC_SHA1_Init) refers to crypto.o(i.SHA1_Finish) for SHA1_Finish
    crypto.o(i.HMAC_SHA224_Append) refers to crypto.o(i.SHA256Update) for SHA256Update
    crypto.o(i.HMAC_SHA224_Finish) refers to crypto.o(i.SHA224_Finish) for SHA224_Finish
    crypto.o(i.HMAC_SHA224_Finish) refers to crypto.o(i.SHA256Update) for SHA256Update
    crypto.o(i.HMAC_SHA224_Init) refers to crypto.o(i.SHA256Update) for SHA256Update
    crypto.o(i.HMAC_SHA224_Init) refers to crypto.o(i.SHA224_Finish) for SHA224_Finish
    crypto.o(i.HMAC_SHA256_Append) refers to crypto.o(i.SHA256Update) for SHA256Update
    crypto.o(i.HMAC_SHA256_Finish) refers to crypto.o(i.SHA256_Finish) for SHA256_Finish
    crypto.o(i.HMAC_SHA256_Finish) refers to crypto.o(i.SHA256Update) for SHA256Update
    crypto.o(i.HMAC_SHA256_Init) refers to crypto.o(i.SHA256Update) for SHA256Update
    crypto.o(i.HMAC_SHA256_Init) refers to crypto.o(i.SHA256_Finish) for SHA256_Finish
    crypto.o(i.MD5_Append) refers to crypto.o(i.crl_u_MD5_Update) for crl_u_MD5_Update
    crypto.o(i.MD5_Finish) refers to crypto.o(i.crl_u_MD5_Finish) for crl_u_MD5_Finish
    crypto.o(i.ModularAddBig) refers to crypto.o(i.AddBig) for AddBig
    crypto.o(i.ModularAddBig) refers to crypto.o(i.CompareBig) for CompareBig
    crypto.o(i.ModularAddBig) refers to crypto.o(i.SubBig) for SubBig
    crypto.o(i.ModularExpSlidWin) refers to crypto.o(i.MontyInit) for MontyInit
    crypto.o(i.ModularExpSlidWin) refers to crypto.o(i.MontyMul) for MontyMul
    crypto.o(i.ModularExpSlidWin) refers to crypto.o(i.StAllocBig) for StAllocBig
    crypto.o(i.ModularExpSlidWin) refers to crypto.o(i.InitBig) for InitBig
    crypto.o(i.ModularExpSlidWin) refers to crypto.o(i.CopyBig) for CopyBig
    crypto.o(i.ModularExpSlidWin) refers to crypto.o(i.MontyExit) for MontyExit
    crypto.o(i.ModularExpSlidWin) refers to crypto.o(i.MontyKillAll) for MontyKillAll
    crypto.o(i.ModularExpSlidWin) refers to crypto.o(i.StFreeBig) for StFreeBig
    crypto.o(i.ModularFastMul2) refers to crypto.o(i.CompareBig) for CompareBig
    crypto.o(i.ModularFastMul2) refers to crypto.o(i.SubBig) for SubBig
    crypto.o(i.ModularInvBig) refers to crypto.o(i.StAllocBig) for StAllocBig
    crypto.o(i.ModularInvBig) refers to crypto.o(i.CopyBig) for CopyBig
    crypto.o(i.ModularInvBig) refers to crypto.o(i.InitBig) for InitBig
    crypto.o(i.ModularInvBig) refers to crypto.o(i.FastDiv2) for FastDiv2
    crypto.o(i.ModularInvBig) refers to crypto.o(i.AddBig) for AddBig
    crypto.o(i.ModularInvBig) refers to crypto.o(i.CompareBig) for CompareBig
    crypto.o(i.ModularInvBig) refers to crypto.o(i.SubBig) for SubBig
    crypto.o(i.ModularSubBig) refers to crypto.o(i.SubBig) for SubBig
    crypto.o(i.ModularSubBig) refers to crypto.o(i.AddBig) for AddBig
    crypto.o(i.MontyExit) refers to crypto.o(i.StAllocBig) for StAllocBig
    crypto.o(i.MontyExit) refers to crypto.o(i.InitBig) for InitBig
    crypto.o(i.MontyExit) refers to crypto.o(i.MontyMul) for MontyMul
    crypto.o(i.MontyInit) refers to crypto.o(i.StAllocBig) for StAllocBig
    crypto.o(i.MontyInit) refers to crypto.o(i.InitBig) for InitBig
    crypto.o(i.MontyInit) refers to crypto.o(i.CopyBig) for CopyBig
    crypto.o(i.MontyInit) refers to crypto.o(i.CountBits) for CountBits
    crypto.o(i.MontyInit) refers to crypto.o(i.LeftShift) for LeftShift
    crypto.o(i.MontyInit) refers to crypto.o(i.SubBig) for SubBig
    crypto.o(i.MontyInit) refers to crypto.o(i.SetZeroBig) for SetZeroBig
    crypto.o(i.MontyInit) refers to crypto.o(i.CompareBig) for CompareBig
    crypto.o(i.MontyJacProjAddPoints) refers to crypto.o(i.StAllocBig) for StAllocBig
    crypto.o(i.MontyJacProjAddPoints) refers to crypto.o(i.ECCcopyPoint) for ECCcopyPoint
    crypto.o(i.MontyJacProjAddPoints) refers to crypto.o(i.CopyBig) for CopyBig
    crypto.o(i.MontyJacProjAddPoints) refers to crypto.o(i.MontyMul) for MontyMul
    crypto.o(i.MontyJacProjAddPoints) refers to crypto.o(i.SubBig) for SubBig
    crypto.o(i.MontyJacProjAddPoints) refers to crypto.o(i.AddBig) for AddBig
    crypto.o(i.MontyJacProjAddPoints) refers to crypto.o(i.MontyJacProjDoublePoint) for MontyJacProjDoublePoint
    crypto.o(i.MontyJacProjAddPoints) refers to crypto.o(i.ModularFastMul2) for ModularFastMul2
    crypto.o(i.MontyJacProjDoublePoint) refers to crypto.o(i.StAllocBig) for StAllocBig
    crypto.o(i.MontyJacProjDoublePoint) refers to crypto.o(i.InitBig) for InitBig
    crypto.o(i.MontyJacProjDoublePoint) refers to crypto.o(i.MontyMul) for MontyMul
    crypto.o(i.MontyJacProjDoublePoint) refers to crypto.o(i.ModularFastMul2) for ModularFastMul2
    crypto.o(i.MontyJacProjDoublePoint) refers to crypto.o(i.AddBig) for AddBig
    crypto.o(i.MontyJacProjDoublePoint) refers to crypto.o(i.CompareBig) for CompareBig
    crypto.o(i.MontyJacProjDoublePoint) refers to crypto.o(i.SubBig) for SubBig
    crypto.o(i.MontyJacProjDoublePoint) refers to crypto.o(i.ModularAddBig) for ModularAddBig
    crypto.o(i.MontyJacProjDoublePoint) refers to crypto.o(i.CopyBig) for CopyBig
    crypto.o(i.MontyMul) refers to crypto.o(i.StAllocBig) for StAllocBig
    crypto.o(i.MontyMul) refers to crypto.o(i.InitBig) for InitBig
    crypto.o(i.MontyMul) refers to crypto.o(i.CompareBig) for CompareBig
    crypto.o(i.MontyMul) refers to crypto.o(i.Sub_Moduli_Big) for Sub_Moduli_Big
    crypto.o(i.MontyMul) refers to crypto.o(i.CopyBig) for CopyBig
    crypto.o(i.MulBigbyUnInt) refers to crypto.o(i.SetZeroBig) for SetZeroBig
    crypto.o(i.NAF_Binary_PointMul) refers to crypto.o(i.ECCinitPoint) for ECCinitPoint
    crypto.o(i.NAF_Binary_PointMul) refers to crypto.o(i.ECCcopyPoint) for ECCcopyPoint
    crypto.o(i.NAF_Binary_PointMul) refers to crypto.o(i.MontyMul) for MontyMul
    crypto.o(i.NAF_Binary_PointMul) refers to crypto.o(i.StAllocBig) for StAllocBig
    crypto.o(i.NAF_Binary_PointMul) refers to crypto.o(i.InitBig) for InitBig
    crypto.o(i.NAF_Binary_PointMul) refers to crypto.o(i.SubBig) for SubBig
    crypto.o(i.NAF_Binary_PointMul) refers to crypto.o(i.MontyJacProjDoublePoint) for MontyJacProjDoublePoint
    crypto.o(i.NAF_Binary_PointMul) refers to crypto.o(i.MontyJacProjAddPoints) for MontyJacProjAddPoints
    crypto.o(i.NAF_Binary_PointMul) refers to crypto.o(i.ECCfreePoint) for ECCfreePoint
    crypto.o(i.NAF_Binary_PointMul) refers to crypto.o(.constdata) for .constdata
    crypto.o(i.Normalize) refers to crypto.o(i.ECCcopyPoint) for ECCcopyPoint
    crypto.o(i.Normalize) refers to crypto.o(i.MontyExit) for MontyExit
    crypto.o(i.Normalize) refers to crypto.o(i.CopyBig) for CopyBig
    crypto.o(i.Normalize) refers to crypto.o(i.MontyMul) for MontyMul
    crypto.o(i.Normalize) refers to crypto.o(i.ModularInvBig) for ModularInvBig
    crypto.o(i.Normalize) refers to crypto.o(i.StAllocBig) for StAllocBig
    crypto.o(i.RNGfree) refers to stm32f4xx_rng.o(i.RNG_DeInit) for RNG_DeInit
    crypto.o(i.RNGfree) refers to stm32f4xx_rcc.o(i.RCC_AHB2PeriphClockCmd) for RCC_AHB2PeriphClockCmd
    crypto.o(i.RNGgenBytes) refers to stm32f4xx_rng.o(i.RNG_Cmd) for RNG_Cmd
    crypto.o(i.RNGgenBytes) refers to crypto.o(i.crl_DRBG_AES128_Generate) for crl_DRBG_AES128_Generate
    crypto.o(i.RNGgenWords) refers to crypto.o(i.RNGgenBytes) for RNGgenBytes
    crypto.o(i.RNGinit) refers to stm32f4xx_rcc.o(i.RCC_AHB2PeriphClockCmd) for RCC_AHB2PeriphClockCmd
    crypto.o(i.RNGinit) refers to stm32f4xx_rng.o(i.RNG_DeInit) for RNG_DeInit
    crypto.o(i.RNGinit) refers to memseta.o(.text) for __aeabi_memclr4
    crypto.o(i.RNGinit) refers to memmovea.o(.text) for __aeabi_memcpy4
    crypto.o(i.RNGinit) refers to crypto.o(i.DRBG_AES128_Block_cipher_df) for DRBG_AES128_Block_cipher_df
    crypto.o(i.RNGinit) refers to crypto.o(i.DRBG_AES128_Update) for DRBG_AES128_Update
    crypto.o(i.RNGinit) refers to crypto.o(.constdata) for .constdata
    crypto.o(i.RNGreseed) refers to memmovea.o(.text) for __aeabi_memcpy
    crypto.o(i.RNGreseed) refers to crypto.o(i.DRBG_AES128_Block_cipher_df) for DRBG_AES128_Block_cipher_df
    crypto.o(i.RNGreseed) refers to crypto.o(i.AES128_keyschedule_enc) for AES128_keyschedule_enc
    crypto.o(i.RNGreseed) refers to crypto.o(i.DRBG_AES128_Update) for DRBG_AES128_Update
    crypto.o(i.RSASP1) refers to crypto.o(i.crl_ModularExp) for crl_ModularExp
    crypto.o(i.RSAVP1) refers to crypto.o(i.crl_ModularExp) for crl_ModularExp
    crypto.o(i.RSA_PKCS1v15_Sign) refers to crypto.o(i.crl_ModularExp) for crl_ModularExp
    crypto.o(i.RSA_PKCS1v15_Verify) refers to crypto.o(i.crl_ModularExp) for crl_ModularExp
    crypto.o(i.SHA1Final) refers to crypto.o(i.SHA1Transform) for SHA1Transform
    crypto.o(i.SHA1Update) refers to memmovea.o(.text) for __aeabi_memcpy
    crypto.o(i.SHA1Update) refers to crypto.o(i.SHA1Transform) for SHA1Transform
    crypto.o(i.SHA1_Append) refers to memmovea.o(.text) for __aeabi_memcpy
    crypto.o(i.SHA1_Append) refers to crypto.o(i.SHA1Transform) for SHA1Transform
    crypto.o(i.SHA1_Finish) refers to crypto.o(i.SHA1Final) for SHA1Final
    crypto.o(i.SHA224Final) refers to crypto.o(i.SHA256Transform) for SHA256Transform
    crypto.o(i.SHA224_Append) refers to crypto.o(i.SHA256Update) for SHA256Update
    crypto.o(i.SHA224_Finish) refers to crypto.o(i.SHA224Final) for SHA224Final
    crypto.o(i.SHA256Final) refers to crypto.o(i.SHA256Transform) for SHA256Transform
    crypto.o(i.SHA256Transform) refers to crypto.o(.constdata) for .constdata
    crypto.o(i.SHA256Update) refers to memmovea.o(.text) for __aeabi_memcpy
    crypto.o(i.SHA256Update) refers to crypto.o(i.SHA256Transform) for SHA256Transform
    crypto.o(i.SHA256_Append) refers to crypto.o(i.SHA256Update) for SHA256Update
    crypto.o(i.SHA256_Finish) refers to crypto.o(i.SHA256Final) for SHA256Final
    crypto.o(i.SubBig) refers to crypto.o(i.StAllocBig) for StAllocBig
    crypto.o(i.SubBig) refers to crypto.o(i.CompareBig) for CompareBig
    crypto.o(i.SubBig) refers to crypto.o(i.Add_Moduli_Big) for Add_Moduli_Big
    crypto.o(i.SubBig) refers to crypto.o(i.Sub_Moduli_Big) for Sub_Moduli_Big
    crypto.o(i.SubBig) refers to crypto.o(i.SetZeroBig) for SetZeroBig
    crypto.o(i.SubBig) refers to crypto.o(i.InitBig) for InitBig
    crypto.o(i.SubBig) refers to crypto.o(i.CopyBig) for CopyBig
    crypto.o(i.TDES_CBC_Decrypt_Append) refers to crypto.o(i.desfunc) for desfunc
    crypto.o(i.TDES_CBC_Decrypt_Init) refers to crypto.o(i.TDESstdInit) for TDESstdInit
    crypto.o(i.TDES_CBC_Encrypt_Append) refers to crypto.o(i.desfunc) for desfunc
    crypto.o(i.TDES_CBC_Encrypt_Init) refers to crypto.o(i.TDESstdInit) for TDESstdInit
    crypto.o(i.TDES_ECB_Decrypt_Append) refers to crypto.o(i.desfunc) for desfunc
    crypto.o(i.TDES_ECB_Decrypt_Init) refers to crypto.o(i.TDESstdInit) for TDESstdInit
    crypto.o(i.TDES_ECB_Encrypt_Append) refers to crypto.o(i.desfunc) for desfunc
    crypto.o(i.TDES_ECB_Encrypt_Init) refers to crypto.o(i.TDESstdInit) for TDESstdInit
    crypto.o(i.TDESstdInit) refers to crypto.o(i.deskey) for deskey
    crypto.o(i.W8_to_Big) refers to crypto.o(i.SetZeroBig) for SetZeroBig
    crypto.o(i.crl_DRBG_AES128_Generate) refers to crypto.o(i.DRBG_AES128_Block_cipher_df) for DRBG_AES128_Block_cipher_df
    crypto.o(i.crl_DRBG_AES128_Generate) refers to crypto.o(i.AES128_keyschedule_enc) for AES128_keyschedule_enc
    crypto.o(i.crl_DRBG_AES128_Generate) refers to crypto.o(i.DRBG_AES128_Update) for DRBG_AES128_Update
    crypto.o(i.crl_DRBG_AES128_Generate) refers to crypto.o(i.AES128_encrypt) for AES128_encrypt
    crypto.o(i.crl_DRBG_AES128_Instantiate) refers to memseta.o(.text) for __aeabi_memclr4
    crypto.o(i.crl_DRBG_AES128_Instantiate) refers to memmovea.o(.text) for __aeabi_memcpy4
    crypto.o(i.crl_DRBG_AES128_Instantiate) refers to crypto.o(i.DRBG_AES128_Block_cipher_df) for DRBG_AES128_Block_cipher_df
    crypto.o(i.crl_DRBG_AES128_Instantiate) refers to crypto.o(i.DRBG_AES128_Update) for DRBG_AES128_Update
    crypto.o(i.crl_DRBG_AES128_Instantiate) refers to crypto.o(.constdata) for .constdata
    crypto.o(i.crl_DRBG_AES128_Reseed) refers to memmovea.o(.text) for __aeabi_memcpy
    crypto.o(i.crl_DRBG_AES128_Reseed) refers to crypto.o(i.DRBG_AES128_Block_cipher_df) for DRBG_AES128_Block_cipher_df
    crypto.o(i.crl_DRBG_AES128_Reseed) refers to crypto.o(i.AES128_keyschedule_enc) for AES128_keyschedule_enc
    crypto.o(i.crl_DRBG_AES128_Reseed) refers to crypto.o(i.DRBG_AES128_Update) for DRBG_AES128_Update
    crypto.o(i.crl_ModularExp) refers to crypto.o(i.StAllocBig) for StAllocBig
    crypto.o(i.crl_ModularExp) refers to crypto.o(i.W8_to_Big) for W8_to_Big
    crypto.o(i.crl_ModularExp) refers to crypto.o(i.CompareBig) for CompareBig
    crypto.o(i.crl_ModularExp) refers to crypto.o(i.ModularExpSlidWin) for ModularExpSlidWin
    crypto.o(i.crl_ModularExp) refers to crypto.o(i.Big_to_W8) for Big_to_W8
    crypto.o(i.crl_u_MD5_Finish) refers to crypto.o(i.crl_u_MD5_Update) for crl_u_MD5_Update
    crypto.o(i.crl_u_MD5_Finish) refers to crypto.o(.constdata) for .constdata
    crypto.o(i.crl_u_MD5_Update) refers to memmovea.o(.text) for __aeabi_memcpy
    crypto.o(i.crl_u_MD5_Update) refers to crypto.o(i.md5_process) for md5_process
    crypto.o(i.desfunc) refers to crypto.o(.constdata) for .constdata
    crypto.o(i.deskey) refers to memmovea.o(.text) for __aeabi_memcpy4
    crypto.o(i.deskey) refers to crypto.o(.constdata) for .constdata
    crypto.o(i.gfmul) refers to crypto.o(.constdata) for .constdata
    crypto.o(i.md5_process) refers to memmovea.o(.text) for __aeabi_memcpy
    stm32f4xx_rcc.o(i.RCC_GetClocksFreq) refers to stm32f4xx_rcc.o(.data) for APBAHBPrescTable
    stm32f4xx_rcc.o(i.RCC_WaitForHSEStartUp) refers to stm32f4xx_rcc.o(i.RCC_GetFlagStatus) for RCC_GetFlagStatus
    stm32f4xx_rng.o(i.RNG_DeInit) refers to stm32f4xx_rcc.o(i.RCC_AHB2PeriphResetCmd) for RCC_AHB2PeriphResetCmd
    pow.o(i.__hardfp_pow) refers (Special) to iusefp.o(.text) for __I$use$fp
    pow.o(i.__hardfp_pow) refers to dunder.o(i.__mathlib_dbl_infnan2) for __mathlib_dbl_infnan2
    pow.o(i.__hardfp_pow) refers to errno.o(i.__set_errno) for __set_errno
    pow.o(i.__hardfp_pow) refers to dunder.o(i.__mathlib_dbl_divzero) for __mathlib_dbl_divzero
    pow.o(i.__hardfp_pow) refers to dunder.o(i.__mathlib_dbl_overflow) for __mathlib_dbl_overflow
    pow.o(i.__hardfp_pow) refers to ddiv.o(.text) for __aeabi_ddiv
    pow.o(i.__hardfp_pow) refers to sqrt.o(i.sqrt) for sqrt
    pow.o(i.__hardfp_pow) refers to fabs.o(i.fabs) for fabs
    pow.o(i.__hardfp_pow) refers to dunder.o(i.__mathlib_dbl_invalid) for __mathlib_dbl_invalid
    pow.o(i.__hardfp_pow) refers to dunder.o(i.__mathlib_dbl_underflow) for __mathlib_dbl_underflow
    pow.o(i.__hardfp_pow) refers to dadd.o(.text) for __aeabi_dsub
    pow.o(i.__hardfp_pow) refers to dmul.o(.text) for __aeabi_dmul
    pow.o(i.__hardfp_pow) refers to qnan.o(.constdata) for __mathlib_zero
    pow.o(i.__hardfp_pow) refers to poly.o(i.__kernel_poly) for __kernel_poly
    pow.o(i.__hardfp_pow) refers to dflti.o(.text) for __aeabi_i2d
    pow.o(i.__hardfp_pow) refers to pow.o(.constdata) for .constdata
    pow.o(i.__hardfp_pow) refers to cdrcmple.o(.text) for __aeabi_cdrcmple
    pow.o(i.__hardfp_pow) refers to dscalb.o(.text) for __ARM_scalbn
    pow.o(i.__hardfp_pow) refers to fpclassify.o(i.__ARM_fpclassify) for __ARM_fpclassify
    pow.o(i.__softfp_pow) refers (Special) to iusefp.o(.text) for __I$use$fp
    pow.o(i.__softfp_pow) refers to pow.o(i.__hardfp_pow) for __hardfp_pow
    pow.o(i.pow) refers (Special) to iusefp.o(.text) for __I$use$fp
    pow.o(i.pow) refers to pow.o(i.__hardfp_pow) for __hardfp_pow
    pow.o(.constdata) refers (Special) to iusefp.o(.text) for __I$use$fp
    pow_x.o(i.____hardfp_pow$lsc) refers (Special) to iusefp.o(.text) for __I$use$fp
    pow_x.o(i.____hardfp_pow$lsc) refers to dunder.o(i.__mathlib_dbl_infnan2) for __mathlib_dbl_infnan2
    pow_x.o(i.____hardfp_pow$lsc) refers to errno.o(i.__set_errno) for __set_errno
    pow_x.o(i.____hardfp_pow$lsc) refers to ddiv.o(.text) for __aeabi_ddiv
    pow_x.o(i.____hardfp_pow$lsc) refers to sqrt.o(i.sqrt) for sqrt
    pow_x.o(i.____hardfp_pow$lsc) refers to fabs.o(i.fabs) for fabs
    pow_x.o(i.____hardfp_pow$lsc) refers to dflti.o(.text) for __aeabi_i2d
    pow_x.o(i.____hardfp_pow$lsc) refers to dadd.o(.text) for __aeabi_dsub
    pow_x.o(i.____hardfp_pow$lsc) refers to dmul.o(.text) for __aeabi_dmul
    pow_x.o(i.____hardfp_pow$lsc) refers to qnan.o(.constdata) for __mathlib_zero
    pow_x.o(i.____hardfp_pow$lsc) refers to poly.o(i.__kernel_poly) for __kernel_poly
    pow_x.o(i.____hardfp_pow$lsc) refers to pow_x.o(.constdata) for .constdata
    pow_x.o(i.____hardfp_pow$lsc) refers to cdrcmple.o(.text) for __aeabi_cdrcmple
    pow_x.o(i.____hardfp_pow$lsc) refers to dscalb.o(.text) for __ARM_scalbn
    pow_x.o(i.____softfp_pow$lsc) refers (Special) to iusefp.o(.text) for __I$use$fp
    pow_x.o(i.____softfp_pow$lsc) refers to pow_x.o(i.____hardfp_pow$lsc) for ____hardfp_pow$lsc
    pow_x.o(i.__pow$lsc) refers (Special) to iusefp.o(.text) for __I$use$fp
    pow_x.o(i.__pow$lsc) refers to pow_x.o(i.____hardfp_pow$lsc) for ____hardfp_pow$lsc
    pow_x.o(.constdata) refers (Special) to iusefp.o(.text) for __I$use$fp
    entry.o(.ARM.Collect$$$$00000000) refers (Special) to entry10a.o(.ARM.Collect$$$$0000000D) for __rt_final_cpp
    entry.o(.ARM.Collect$$$$00000000) refers (Special) to entry11a.o(.ARM.Collect$$$$0000000F) for __rt_final_exit
    entry.o(.ARM.Collect$$$$00000000) refers (Special) to entry7b.o(.ARM.Collect$$$$00000008) for _main_clock
    entry.o(.ARM.Collect$$$$00000000) refers (Special) to entry8b.o(.ARM.Collect$$$$0000000A) for _main_cpp_init
    entry.o(.ARM.Collect$$$$00000000) refers (Special) to entry9a.o(.ARM.Collect$$$$0000000B) for _main_init
    entry.o(.ARM.Collect$$$$00000000) refers (Special) to entry5.o(.ARM.Collect$$$$00000004) for _main_scatterload
    entry.o(.ARM.Collect$$$$00000000) refers (Special) to entry2.o(.ARM.Collect$$$$00000001) for _main_stk
    uldiv.o(.text) refers to llushr.o(.text) for __aeabi_llsr
    uldiv.o(.text) refers to llshl.o(.text) for __aeabi_llsl
    ctype_o.o(.text) refers to ctype_o.o(.constdata) for .constdata
    ctype_o.o(.constdata) refers to ctype_o.o(.constdata) for __ctype_table
    isalnum_o.o(.text) refers to ctype_o.o(.text) for __rt_ctype_table
    isalpha_o.o(.text) refers to ctype_o.o(.text) for __rt_ctype_table
    isblank_o.o(.text) refers to ctype_o.o(.constdata) for __ctype_table
    iscntrl_o.o(.text) refers to ctype_o.o(.text) for __rt_ctype_table
    isdigit_o.o(.text) refers to ctype_o.o(.text) for __rt_ctype_table
    isgraph_o.o(.text) refers to ctype_o.o(.text) for __rt_ctype_table
    islower_o.o(.text) refers to ctype_o.o(.text) for __rt_ctype_table
    isprint_o.o(.text) refers to ctype_o.o(.text) for __rt_ctype_table
    ispunct_o.o(.text) refers to ctype_o.o(.text) for __rt_ctype_table
    isspace_o.o(.text) refers to ctype_o.o(.text) for __rt_ctype_table
    isupper_o.o(.text) refers to ctype_o.o(.text) for __rt_ctype_table
    isxdigit_o.o(.text) refers to ctype_o.o(.text) for __rt_ctype_table
    printfb.o(i.__0fprintf$bare) refers to printfb.o(i._printf_core) for _printf_core
    printfb.o(i.__0fprintf$bare) refers to fputc.o(i.fputc) for fputc
    printfb.o(i.__0printf$bare) refers to printfb.o(i._printf_core) for _printf_core
    printfb.o(i.__0printf$bare) refers to fputc.o(i.fputc) for fputc
    printfb.o(i.__0printf$bare) refers to stdout.o(.data) for __stdout
    printfb.o(i.__0snprintf$bare) refers to printfb.o(i._printf_core) for _printf_core
    printfb.o(i.__0snprintf$bare) refers to printfb.o(i._snputc) for _snputc
    printfb.o(i.__0sprintf$bare) refers to printfb.o(i._printf_core) for _printf_core
    printfb.o(i.__0sprintf$bare) refers to printfb.o(i._sputc) for _sputc
    printfb.o(i.__0vfprintf$bare) refers to printfb.o(i._printf_core) for _printf_core
    printfb.o(i.__0vfprintf$bare) refers to fputc.o(i.fputc) for fputc
    printfb.o(i.__0vprintf$bare) refers to printfb.o(i._printf_core) for _printf_core
    printfb.o(i.__0vprintf$bare) refers to fputc.o(i.fputc) for fputc
    printfb.o(i.__0vprintf$bare) refers to stdout.o(.data) for __stdout
    printfb.o(i.__0vsnprintf$bare) refers to printfb.o(i._printf_core) for _printf_core
    printfb.o(i.__0vsnprintf$bare) refers to printfb.o(i._snputc) for _snputc
    printfb.o(i.__0vsprintf$bare) refers to printfb.o(i._printf_core) for _printf_core
    printfb.o(i.__0vsprintf$bare) refers to printfb.o(i._sputc) for _sputc
    printf0.o(i.__0fprintf$0) refers to printf0.o(i._printf_core) for _printf_core
    printf0.o(i.__0fprintf$0) refers to fputc.o(i.fputc) for fputc
    printf0.o(i.__0printf$0) refers to printf0.o(i._printf_core) for _printf_core
    printf0.o(i.__0printf$0) refers to fputc.o(i.fputc) for fputc
    printf0.o(i.__0printf$0) refers to stdout.o(.data) for __stdout
    printf0.o(i.__0snprintf$0) refers to printf0.o(i._printf_core) for _printf_core
    printf0.o(i.__0snprintf$0) refers to printf0.o(i._snputc) for _snputc
    printf0.o(i.__0sprintf$0) refers to printf0.o(i._printf_core) for _printf_core
    printf0.o(i.__0sprintf$0) refers to printf0.o(i._sputc) for _sputc
    printf0.o(i.__0vfprintf$0) refers to printf0.o(i._printf_core) for _printf_core
    printf0.o(i.__0vfprintf$0) refers to fputc.o(i.fputc) for fputc
    printf0.o(i.__0vprintf$0) refers to printf0.o(i._printf_core) for _printf_core
    printf0.o(i.__0vprintf$0) refers to fputc.o(i.fputc) for fputc
    printf0.o(i.__0vprintf$0) refers to stdout.o(.data) for __stdout
    printf0.o(i.__0vsnprintf$0) refers to printf0.o(i._printf_core) for _printf_core
    printf0.o(i.__0vsnprintf$0) refers to printf0.o(i._snputc) for _snputc
    printf0.o(i.__0vsprintf$0) refers to printf0.o(i._printf_core) for _printf_core
    printf0.o(i.__0vsprintf$0) refers to printf0.o(i._sputc) for _sputc
    printf1.o(i.__0fprintf$1) refers to printf1.o(i._printf_core) for _printf_core
    printf1.o(i.__0fprintf$1) refers to fputc.o(i.fputc) for fputc
    printf1.o(i.__0printf$1) refers to printf1.o(i._printf_core) for _printf_core
    printf1.o(i.__0printf$1) refers to fputc.o(i.fputc) for fputc
    printf1.o(i.__0printf$1) refers to stdout.o(.data) for __stdout
    printf1.o(i.__0snprintf$1) refers to printf1.o(i._printf_core) for _printf_core
    printf1.o(i.__0snprintf$1) refers to printf1.o(i._snputc) for _snputc
    printf1.o(i.__0sprintf$1) refers to printf1.o(i._printf_core) for _printf_core
    printf1.o(i.__0sprintf$1) refers to printf1.o(i._sputc) for _sputc
    printf1.o(i.__0vfprintf$1) refers to printf1.o(i._printf_core) for _printf_core
    printf1.o(i.__0vfprintf$1) refers to fputc.o(i.fputc) for fputc
    printf1.o(i.__0vprintf$1) refers to printf1.o(i._printf_core) for _printf_core
    printf1.o(i.__0vprintf$1) refers to fputc.o(i.fputc) for fputc
    printf1.o(i.__0vprintf$1) refers to stdout.o(.data) for __stdout
    printf1.o(i.__0vsnprintf$1) refers to printf1.o(i._printf_core) for _printf_core
    printf1.o(i.__0vsnprintf$1) refers to printf1.o(i._snputc) for _snputc
    printf1.o(i.__0vsprintf$1) refers to printf1.o(i._printf_core) for _printf_core
    printf1.o(i.__0vsprintf$1) refers to printf1.o(i._sputc) for _sputc
    printf1.o(i._printf_core) refers to uidiv.o(.text) for __aeabi_uidivmod
    printf2.o(i.__0fprintf$2) refers to printf2.o(i._printf_core) for _printf_core
    printf2.o(i.__0fprintf$2) refers to fputc.o(i.fputc) for fputc
    printf2.o(i.__0printf$2) refers to printf2.o(i._printf_core) for _printf_core
    printf2.o(i.__0printf$2) refers to fputc.o(i.fputc) for fputc
    printf2.o(i.__0printf$2) refers to stdout.o(.data) for __stdout
    printf2.o(i.__0snprintf$2) refers to printf2.o(i._printf_core) for _printf_core
    printf2.o(i.__0snprintf$2) refers to printf2.o(i._snputc) for _snputc
    printf2.o(i.__0sprintf$2) refers to printf2.o(i._printf_core) for _printf_core
    printf2.o(i.__0sprintf$2) refers to printf2.o(i._sputc) for _sputc
    printf2.o(i.__0vfprintf$2) refers to printf2.o(i._printf_core) for _printf_core
    printf2.o(i.__0vfprintf$2) refers to fputc.o(i.fputc) for fputc
    printf2.o(i.__0vprintf$2) refers to printf2.o(i._printf_core) for _printf_core
    printf2.o(i.__0vprintf$2) refers to fputc.o(i.fputc) for fputc
    printf2.o(i.__0vprintf$2) refers to stdout.o(.data) for __stdout
    printf2.o(i.__0vsnprintf$2) refers to printf2.o(i._printf_core) for _printf_core
    printf2.o(i.__0vsnprintf$2) refers to printf2.o(i._snputc) for _snputc
    printf2.o(i.__0vsprintf$2) refers to printf2.o(i._printf_core) for _printf_core
    printf2.o(i.__0vsprintf$2) refers to printf2.o(i._sputc) for _sputc
    printf3.o(i.__0fprintf$3) refers to printf3.o(i._printf_core) for _printf_core
    printf3.o(i.__0fprintf$3) refers to fputc.o(i.fputc) for fputc
    printf3.o(i.__0printf$3) refers to printf3.o(i._printf_core) for _printf_core
    printf3.o(i.__0printf$3) refers to fputc.o(i.fputc) for fputc
    printf3.o(i.__0printf$3) refers to stdout.o(.data) for __stdout
    printf3.o(i.__0snprintf$3) refers to printf3.o(i._printf_core) for _printf_core
    printf3.o(i.__0snprintf$3) refers to printf3.o(i._snputc) for _snputc
    printf3.o(i.__0sprintf$3) refers to printf3.o(i._printf_core) for _printf_core
    printf3.o(i.__0sprintf$3) refers to printf3.o(i._sputc) for _sputc
    printf3.o(i.__0vfprintf$3) refers to printf3.o(i._printf_core) for _printf_core
    printf3.o(i.__0vfprintf$3) refers to fputc.o(i.fputc) for fputc
    printf3.o(i.__0vprintf$3) refers to printf3.o(i._printf_core) for _printf_core
    printf3.o(i.__0vprintf$3) refers to fputc.o(i.fputc) for fputc
    printf3.o(i.__0vprintf$3) refers to stdout.o(.data) for __stdout
    printf3.o(i.__0vsnprintf$3) refers to printf3.o(i._printf_core) for _printf_core
    printf3.o(i.__0vsnprintf$3) refers to printf3.o(i._snputc) for _snputc
    printf3.o(i.__0vsprintf$3) refers to printf3.o(i._printf_core) for _printf_core
    printf3.o(i.__0vsprintf$3) refers to printf3.o(i._sputc) for _sputc
    printf3.o(i._printf_core) refers to uidiv.o(.text) for __aeabi_uidivmod
    printf4.o(i.__0fprintf$4) refers to printf4.o(i._printf_core) for _printf_core
    printf4.o(i.__0fprintf$4) refers to fputc.o(i.fputc) for fputc
    printf4.o(i.__0printf$4) refers to printf4.o(i._printf_core) for _printf_core
    printf4.o(i.__0printf$4) refers to fputc.o(i.fputc) for fputc
    printf4.o(i.__0printf$4) refers to stdout.o(.data) for __stdout
    printf4.o(i.__0snprintf$4) refers to printf4.o(i._printf_core) for _printf_core
    printf4.o(i.__0snprintf$4) refers to printf4.o(i._snputc) for _snputc
    printf4.o(i.__0sprintf$4) refers to printf4.o(i._printf_core) for _printf_core
    printf4.o(i.__0sprintf$4) refers to printf4.o(i._sputc) for _sputc
    printf4.o(i.__0vfprintf$4) refers to printf4.o(i._printf_core) for _printf_core
    printf4.o(i.__0vfprintf$4) refers to fputc.o(i.fputc) for fputc
    printf4.o(i.__0vprintf$4) refers to printf4.o(i._printf_core) for _printf_core
    printf4.o(i.__0vprintf$4) refers to fputc.o(i.fputc) for fputc
    printf4.o(i.__0vprintf$4) refers to stdout.o(.data) for __stdout
    printf4.o(i.__0vsnprintf$4) refers to printf4.o(i._printf_core) for _printf_core
    printf4.o(i.__0vsnprintf$4) refers to printf4.o(i._snputc) for _snputc
    printf4.o(i.__0vsprintf$4) refers to printf4.o(i._printf_core) for _printf_core
    printf4.o(i.__0vsprintf$4) refers to printf4.o(i._sputc) for _sputc
    printf4.o(i._printf_core) refers to uldiv.o(.text) for __aeabi_uldivmod
    printf5.o(i.__0fprintf$5) refers to printf5.o(i._printf_core) for _printf_core
    printf5.o(i.__0fprintf$5) refers to fputc.o(i.fputc) for fputc
    printf5.o(i.__0printf$5) refers to printf5.o(i._printf_core) for _printf_core
    printf5.o(i.__0printf$5) refers to fputc.o(i.fputc) for fputc
    printf5.o(i.__0printf$5) refers to stdout.o(.data) for __stdout
    printf5.o(i.__0snprintf$5) refers to printf5.o(i._printf_core) for _printf_core
    printf5.o(i.__0snprintf$5) refers to printf5.o(i._snputc) for _snputc
    printf5.o(i.__0sprintf$5) refers to printf5.o(i._printf_core) for _printf_core
    printf5.o(i.__0sprintf$5) refers to printf5.o(i._sputc) for _sputc
    printf5.o(i.__0vfprintf$5) refers to printf5.o(i._printf_core) for _printf_core
    printf5.o(i.__0vfprintf$5) refers to fputc.o(i.fputc) for fputc
    printf5.o(i.__0vprintf$5) refers to printf5.o(i._printf_core) for _printf_core
    printf5.o(i.__0vprintf$5) refers to fputc.o(i.fputc) for fputc
    printf5.o(i.__0vprintf$5) refers to stdout.o(.data) for __stdout
    printf5.o(i.__0vsnprintf$5) refers to printf5.o(i._printf_core) for _printf_core
    printf5.o(i.__0vsnprintf$5) refers to printf5.o(i._snputc) for _snputc
    printf5.o(i.__0vsprintf$5) refers to printf5.o(i._printf_core) for _printf_core
    printf5.o(i.__0vsprintf$5) refers to printf5.o(i._sputc) for _sputc
    printf5.o(i._printf_core) refers to uldiv.o(.text) for __aeabi_uldivmod
    printf6.o(i.__0fprintf$6) refers to printf6.o(i._printf_core) for _printf_core
    printf6.o(i.__0fprintf$6) refers to fputc.o(i.fputc) for fputc
    printf6.o(i.__0printf$6) refers to printf6.o(i._printf_core) for _printf_core
    printf6.o(i.__0printf$6) refers to fputc.o(i.fputc) for fputc
    printf6.o(i.__0printf$6) refers to stdout.o(.data) for __stdout
    printf6.o(i.__0snprintf$6) refers to printf6.o(i._printf_core) for _printf_core
    printf6.o(i.__0snprintf$6) refers to printf6.o(i._snputc) for _snputc
    printf6.o(i.__0sprintf$6) refers to printf6.o(i._printf_core) for _printf_core
    printf6.o(i.__0sprintf$6) refers to printf6.o(i._sputc) for _sputc
    printf6.o(i.__0vfprintf$6) refers to printf6.o(i._printf_core) for _printf_core
    printf6.o(i.__0vfprintf$6) refers to fputc.o(i.fputc) for fputc
    printf6.o(i.__0vprintf$6) refers to printf6.o(i._printf_core) for _printf_core
    printf6.o(i.__0vprintf$6) refers to fputc.o(i.fputc) for fputc
    printf6.o(i.__0vprintf$6) refers to stdout.o(.data) for __stdout
    printf6.o(i.__0vsnprintf$6) refers to printf6.o(i._printf_core) for _printf_core
    printf6.o(i.__0vsnprintf$6) refers to printf6.o(i._snputc) for _snputc
    printf6.o(i.__0vsprintf$6) refers to printf6.o(i._printf_core) for _printf_core
    printf6.o(i.__0vsprintf$6) refers to printf6.o(i._sputc) for _sputc
    printf6.o(i._printf_core) refers to printf6.o(i._printf_pre_padding) for _printf_pre_padding
    printf6.o(i._printf_core) refers to uidiv.o(.text) for __aeabi_uidivmod
    printf6.o(i._printf_core) refers to printf6.o(i._printf_post_padding) for _printf_post_padding
    printf7.o(i.__0fprintf$7) refers to printf7.o(i._printf_core) for _printf_core
    printf7.o(i.__0fprintf$7) refers to fputc.o(i.fputc) for fputc
    printf7.o(i.__0printf$7) refers to printf7.o(i._printf_core) for _printf_core
    printf7.o(i.__0printf$7) refers to fputc.o(i.fputc) for fputc
    printf7.o(i.__0printf$7) refers to stdout.o(.data) for __stdout
    printf7.o(i.__0snprintf$7) refers to printf7.o(i._printf_core) for _printf_core
    printf7.o(i.__0snprintf$7) refers to printf7.o(i._snputc) for _snputc
    printf7.o(i.__0sprintf$7) refers to printf7.o(i._printf_core) for _printf_core
    printf7.o(i.__0sprintf$7) refers to printf7.o(i._sputc) for _sputc
    printf7.o(i.__0vfprintf$7) refers to printf7.o(i._printf_core) for _printf_core
    printf7.o(i.__0vfprintf$7) refers to fputc.o(i.fputc) for fputc
    printf7.o(i.__0vprintf$7) refers to printf7.o(i._printf_core) for _printf_core
    printf7.o(i.__0vprintf$7) refers to fputc.o(i.fputc) for fputc
    printf7.o(i.__0vprintf$7) refers to stdout.o(.data) for __stdout
    printf7.o(i.__0vsnprintf$7) refers to printf7.o(i._printf_core) for _printf_core
    printf7.o(i.__0vsnprintf$7) refers to printf7.o(i._snputc) for _snputc
    printf7.o(i.__0vsprintf$7) refers to printf7.o(i._printf_core) for _printf_core
    printf7.o(i.__0vsprintf$7) refers to printf7.o(i._sputc) for _sputc
    printf7.o(i._printf_core) refers to printf7.o(i._printf_pre_padding) for _printf_pre_padding
    printf7.o(i._printf_core) refers to uldiv.o(.text) for __aeabi_uldivmod
    printf7.o(i._printf_core) refers to printf7.o(i._printf_post_padding) for _printf_post_padding
    printf8.o(i.__0fprintf$8) refers to printf8.o(i._printf_core) for _printf_core
    printf8.o(i.__0fprintf$8) refers to fputc.o(i.fputc) for fputc
    printf8.o(i.__0printf$8) refers to printf8.o(i._printf_core) for _printf_core
    printf8.o(i.__0printf$8) refers to fputc.o(i.fputc) for fputc
    printf8.o(i.__0printf$8) refers to stdout.o(.data) for __stdout
    printf8.o(i.__0snprintf$8) refers to printf8.o(i._printf_core) for _printf_core
    printf8.o(i.__0snprintf$8) refers to printf8.o(i._snputc) for _snputc
    printf8.o(i.__0sprintf$8) refers to printf8.o(i._printf_core) for _printf_core
    printf8.o(i.__0sprintf$8) refers to printf8.o(i._sputc) for _sputc
    printf8.o(i.__0vfprintf$8) refers to printf8.o(i._printf_core) for _printf_core
    printf8.o(i.__0vfprintf$8) refers to fputc.o(i.fputc) for fputc
    printf8.o(i.__0vprintf$8) refers to printf8.o(i._printf_core) for _printf_core
    printf8.o(i.__0vprintf$8) refers to fputc.o(i.fputc) for fputc
    printf8.o(i.__0vprintf$8) refers to stdout.o(.data) for __stdout
    printf8.o(i.__0vsnprintf$8) refers to printf8.o(i._printf_core) for _printf_core
    printf8.o(i.__0vsnprintf$8) refers to printf8.o(i._snputc) for _snputc
    printf8.o(i.__0vsprintf$8) refers to printf8.o(i._printf_core) for _printf_core
    printf8.o(i.__0vsprintf$8) refers to printf8.o(i._sputc) for _sputc
    printf8.o(i._printf_core) refers to printf8.o(i._printf_pre_padding) for _printf_pre_padding
    printf8.o(i._printf_core) refers to uldiv.o(.text) for __aeabi_uldivmod
    printf8.o(i._printf_core) refers to printf8.o(i._printf_post_padding) for _printf_post_padding
    printfa.o(i.__0fprintf) refers (Special) to iusefp.o(.text) for __I$use$fp
    printfa.o(i.__0fprintf) refers to printfa.o(i._printf_core) for _printf_core
    printfa.o(i.__0fprintf) refers to fputc.o(i.fputc) for fputc
    printfa.o(i.__0printf) refers (Special) to iusefp.o(.text) for __I$use$fp
    printfa.o(i.__0printf) refers to printfa.o(i._printf_core) for _printf_core
    printfa.o(i.__0printf) refers to fputc.o(i.fputc) for fputc
    printfa.o(i.__0printf) refers to stdout.o(.data) for __stdout
    printfa.o(i.__0snprintf) refers (Special) to iusefp.o(.text) for __I$use$fp
    printfa.o(i.__0snprintf) refers to printfa.o(i._printf_core) for _printf_core
    printfa.o(i.__0snprintf) refers to printfa.o(i._snputc) for _snputc
    printfa.o(i.__0sprintf) refers (Special) to iusefp.o(.text) for __I$use$fp
    printfa.o(i.__0sprintf) refers to printfa.o(i._printf_core) for _printf_core
    printfa.o(i.__0sprintf) refers to printfa.o(i._sputc) for _sputc
    printfa.o(i.__0vfprintf) refers (Special) to iusefp.o(.text) for __I$use$fp
    printfa.o(i.__0vfprintf) refers to printfa.o(i._printf_core) for _printf_core
    printfa.o(i.__0vfprintf) refers to fputc.o(i.fputc) for fputc
    printfa.o(i.__0vprintf) refers (Special) to iusefp.o(.text) for __I$use$fp
    printfa.o(i.__0vprintf) refers to printfa.o(i._printf_core) for _printf_core
    printfa.o(i.__0vprintf) refers to fputc.o(i.fputc) for fputc
    printfa.o(i.__0vprintf) refers to stdout.o(.data) for __stdout
    printfa.o(i.__0vsnprintf) refers (Special) to iusefp.o(.text) for __I$use$fp
    printfa.o(i.__0vsnprintf) refers to printfa.o(i._printf_core) for _printf_core
    printfa.o(i.__0vsnprintf) refers to printfa.o(i._snputc) for _snputc
    printfa.o(i.__0vsprintf) refers (Special) to iusefp.o(.text) for __I$use$fp
    printfa.o(i.__0vsprintf) refers to printfa.o(i._printf_core) for _printf_core
    printfa.o(i.__0vsprintf) refers to printfa.o(i._sputc) for _sputc
    printfa.o(i._fp_digits) refers (Special) to iusefp.o(.text) for __I$use$fp
    printfa.o(i._fp_digits) refers to dmul.o(.text) for __aeabi_dmul
    printfa.o(i._fp_digits) refers to ddiv.o(.text) for __aeabi_ddiv
    printfa.o(i._fp_digits) refers to cdrcmple.o(.text) for __aeabi_cdrcmple
    printfa.o(i._fp_digits) refers to dadd.o(.text) for __aeabi_dadd
    printfa.o(i._fp_digits) refers to dfixul.o(.text) for __aeabi_d2ulz
    printfa.o(i._fp_digits) refers to uldiv.o(.text) for __aeabi_uldivmod
    printfa.o(i._printf_core) refers (Special) to iusefp.o(.text) for __I$use$fp
    printfa.o(i._printf_core) refers to printfa.o(i._printf_pre_padding) for _printf_pre_padding
    printfa.o(i._printf_core) refers to uldiv.o(.text) for __aeabi_uldivmod
    printfa.o(i._printf_core) refers to printfa.o(i._printf_post_padding) for _printf_post_padding
    printfa.o(i._printf_core) refers to printfa.o(i._fp_digits) for _fp_digits
    printfa.o(i._printf_core) refers to uidiv.o(.text) for __aeabi_uidivmod
    printfa.o(i._printf_post_padding) refers (Special) to iusefp.o(.text) for __I$use$fp
    printfa.o(i._printf_pre_padding) refers (Special) to iusefp.o(.text) for __I$use$fp
    printfa.o(i._snputc) refers (Special) to iusefp.o(.text) for __I$use$fp
    printfa.o(i._sputc) refers (Special) to iusefp.o(.text) for __I$use$fp
    malloc.o(i.free) refers to mvars.o(.data) for __microlib_freelist
    malloc.o(i.malloc) refers to mvars.o(.data) for __microlib_freelist_initialised
    malloc.o(i.malloc) refers to mvars.o(.data) for __microlib_freelist
    malloc.o(i.malloc) refers to startup_stm32f407xx.o(HEAP) for __heap_base
    mallocr.o(i.__free$realloc) refers to mvars.o(.data) for __microlib_freelist
    mallocr.o(i.__malloc$realloc) refers to mallocr.o(i.internal_alloc) for internal_alloc
    mallocr.o(i.__malloc$realloc) refers to mvars.o(.data) for __microlib_freelist_initialised
    mallocr.o(i.__malloc$realloc) refers to startup_stm32f407xx.o(HEAP) for __heap_base
    mallocr.o(i.__malloc$realloc) refers to mvars.o(.data) for __microlib_freelist
    mallocr.o(i.internal_alloc) refers to memmovea.o(.text) for __aeabi_memcpy
    mallocr.o(i.internal_alloc) refers to mvars.o(.data) for __microlib_freelist
    mallocr.o(i.realloc) refers to mallocr.o(i.__free$realloc) for __free$realloc
    mallocr.o(i.realloc) refers to mallocr.o(i.internal_alloc) for internal_alloc
    mallocr.o(i.realloc) refers to mallocr.o(i.__malloc$realloc) for __malloc$realloc
    mallocr.o(i.realloc) refers to mvars.o(.data) for __microlib_freelist
    malloca.o(i.__aligned_malloc) refers to mvars.o(.data) for __microlib_freelist_initialised
    malloca.o(i.__aligned_malloc) refers to mvars.o(.data) for __microlib_freelist
    malloca.o(i.__aligned_malloc) refers to startup_stm32f407xx.o(HEAP) for __heap_base
    malloca.o(i.__free$memalign) refers to mvars.o(.data) for __microlib_freelist
    malloca.o(i.__malloc$memalign) refers to malloca.o(i.__aligned_malloc) for __aligned_malloc
    mallocra.o(i.__aligned_malloc$realloc) refers to mallocra.o(i.internal_alloc) for internal_alloc
    mallocra.o(i.__aligned_malloc$realloc) refers to mvars.o(.data) for __microlib_freelist_initialised
    mallocra.o(i.__aligned_malloc$realloc) refers to startup_stm32f407xx.o(HEAP) for __heap_base
    mallocra.o(i.__aligned_malloc$realloc) refers to mvars.o(.data) for __microlib_freelist
    mallocra.o(i.__free$realloc$memalign) refers to mvars.o(.data) for __microlib_freelist
    mallocra.o(i.__malloc$realloc$memalign) refers to mallocra.o(i.__aligned_malloc$realloc) for __aligned_malloc$realloc
    mallocra.o(i.__realloc$memalign) refers to mallocra.o(i.__free$realloc$memalign) for __free$realloc$memalign
    mallocra.o(i.__realloc$memalign) refers to mallocra.o(i.internal_alloc) for internal_alloc
    mallocra.o(i.__realloc$memalign) refers to mallocra.o(i.__malloc$realloc$memalign) for __malloc$realloc$memalign
    mallocra.o(i.__realloc$memalign) refers to mvars.o(.data) for __microlib_freelist
    mallocra.o(i.internal_alloc) refers to memmovea.o(.text) for __aeabi_memcpy
    mallocra.o(i.internal_alloc) refers to mvars.o(.data) for __microlib_freelist
    dadd.o(.text) refers (Special) to iusefp.o(.text) for __I$use$fp
    dadd.o(.text) refers to llshl.o(.text) for __aeabi_llsl
    dadd.o(.text) refers to llsshr.o(.text) for __aeabi_lasr
    dadd.o(.text) refers to depilogue.o(.text) for _double_epilogue
    dmul.o(.text) refers (Special) to iusefp.o(.text) for __I$use$fp
    dmul.o(.text) refers to depilogue.o(.text) for _double_epilogue
    dflti.o(.text) refers (Special) to iusefp.o(.text) for __I$use$fp
    dflti.o(.text) refers to depilogue.o(.text) for _double_epilogue
    dfltl.o(.text) refers (Special) to iusefp.o(.text) for __I$use$fp
    dfltl.o(.text) refers to depilogue.o(.text) for _double_epilogue
    dfixl.o(.text) refers (Special) to iusefp.o(.text) for __I$use$fp
    dfixl.o(.text) refers to llushr.o(.text) for __aeabi_llsr
    dfixl.o(.text) refers to llshl.o(.text) for __aeabi_llsl
    dfixul.o(.text) refers (Special) to iusefp.o(.text) for __I$use$fp
    dfixul.o(.text) refers to llushr.o(.text) for __aeabi_llsr
    dfixul.o(.text) refers to llshl.o(.text) for __aeabi_llsl
    dunder.o(i.__mathlib_dbl_divzero) refers to ddiv.o(.text) for __aeabi_ddiv
    dunder.o(i.__mathlib_dbl_infnan) refers to dadd.o(.text) for __aeabi_dadd
    dunder.o(i.__mathlib_dbl_infnan2) refers to dadd.o(.text) for __aeabi_dadd
    dunder.o(i.__mathlib_dbl_invalid) refers to ddiv.o(.text) for __aeabi_ddiv
    dunder.o(i.__mathlib_dbl_overflow) refers to dmul.o(.text) for __aeabi_dmul
    dunder.o(i.__mathlib_dbl_posinfnan) refers to dmul.o(.text) for __aeabi_dmul
    dunder.o(i.__mathlib_dbl_underflow) refers to dmul.o(.text) for __aeabi_dmul
    fabs.o(i.__hardfp_fabs) refers (Special) to iusefp.o(.text) for __I$use$fp
    fabs.o(i.__softfp_fabs) refers (Special) to iusefp.o(.text) for __I$use$fp
    fabs.o(i.fabs) refers (Special) to iusefp.o(.text) for __I$use$fp
    fpclassify.o(i.__ARM_fpclassify) refers (Special) to iusefp.o(.text) for __I$use$fp
    poly.o(i.__kernel_poly) refers (Special) to iusefp.o(.text) for __I$use$fp
    poly.o(i.__kernel_poly) refers to dmul.o(.text) for __aeabi_dmul
    poly.o(i.__kernel_poly) refers to dadd.o(.text) for __aeabi_dadd
    qnan.o(.constdata) refers (Special) to iusefp.o(.text) for __I$use$fp
    sqrt.o(i.__hardfp_sqrt) refers (Special) to iusefp.o(.text) for __I$use$fp
    sqrt.o(i.__hardfp_sqrt) refers to dsqrt.o(.text) for _dsqrt
    sqrt.o(i.__hardfp_sqrt) refers to errno.o(i.__set_errno) for __set_errno
    sqrt.o(i.__softfp_sqrt) refers (Special) to iusefp.o(.text) for __I$use$fp
    sqrt.o(i.__softfp_sqrt) refers to dsqrt.o(.text) for _dsqrt
    sqrt.o(i.__softfp_sqrt) refers to errno.o(i.__set_errno) for __set_errno
    sqrt.o(i.sqrt) refers (Special) to iusefp.o(.text) for __I$use$fp
    sqrt.o(i.sqrt) refers to dsqrt.o(.text) for _dsqrt
    sqrt.o(i.sqrt) refers to errno.o(i.__set_errno) for __set_errno
    sqrt_x.o(i.____hardfp_sqrt$lsc) refers (Special) to iusefp.o(.text) for __I$use$fp
    sqrt_x.o(i.____hardfp_sqrt$lsc) refers to cdcmple.o(.text) for __aeabi_cdcmple
    sqrt_x.o(i.____hardfp_sqrt$lsc) refers to errno.o(i.__set_errno) for __set_errno
    sqrt_x.o(i.____hardfp_sqrt$lsc) refers to dsqrt.o(.text) for _dsqrt
    sqrt_x.o(i.____softfp_sqrt$lsc) refers (Special) to iusefp.o(.text) for __I$use$fp
    sqrt_x.o(i.____softfp_sqrt$lsc) refers to cdcmple.o(.text) for __aeabi_cdcmple
    sqrt_x.o(i.____softfp_sqrt$lsc) refers to errno.o(i.__set_errno) for __set_errno
    sqrt_x.o(i.____softfp_sqrt$lsc) refers to dsqrt.o(.text) for _dsqrt
    sqrt_x.o(i.__sqrt$lsc) refers (Special) to iusefp.o(.text) for __I$use$fp
    sqrt_x.o(i.__sqrt$lsc) refers to cdcmple.o(.text) for __aeabi_cdcmple
    sqrt_x.o(i.__sqrt$lsc) refers to errno.o(i.__set_errno) for __set_errno
    sqrt_x.o(i.__sqrt$lsc) refers to dsqrt.o(.text) for _dsqrt
    entry2.o(.ARM.Collect$$$$00000001) refers to entry2.o(.ARM.Collect$$$$00002712) for __lit__00000000
    entry2.o(.ARM.Collect$$$$00002712) refers to startup_stm32f407xx.o(STACK) for __initial_sp
    entry2.o(__vectab_stack_and_reset_area) refers to startup_stm32f407xx.o(STACK) for __initial_sp
    entry2.o(__vectab_stack_and_reset_area) refers to entry.o(.ARM.Collect$$$$00000000) for __main
    entry5.o(.ARM.Collect$$$$00000004) refers to init.o(.text) for __scatterload
    entry9a.o(.ARM.Collect$$$$0000000B) refers to main.o(i.main) for main
    entry9b.o(.ARM.Collect$$$$0000000C) refers to main.o(i.main) for main
    fputc.o(i.fputc) refers (Special) to iusesemip.o(.text) for __I$use$semihosting$fputc
    fputc.o(i.fputc) refers (Special) to semi.o(.text) for __semihosting_library_function
    errno.o(i.__aeabi_errno_addr) refers to errno.o(.data) for .data
    errno.o(i.__read_errno) refers to errno.o(.data) for .data
    errno.o(i.__set_errno) refers to errno.o(.data) for .data
    depilogue.o(.text) refers to llshl.o(.text) for __aeabi_llsl
    depilogue.o(.text) refers to llushr.o(.text) for __aeabi_llsr
    ddiv.o(.text) refers to depilogue.o(.text) for _double_round
    init.o(.text) refers to entry5.o(.ARM.Collect$$$$00000004) for __main_after_scatterload
    dsqrt.o(.text) refers to llushr.o(.text) for __aeabi_llsr
    dsqrt.o(.text) refers to depilogue.o(.text) for _double_round


==============================================================================

Removing Unused input sections from the image.

    Removing startup_stm32f407xx.o(HEAP), (512 bytes).
    Removing bignum.o(.rev16_text), (4 bytes).
    Removing bignum.o(.revsh_text), (4 bytes).
    Removing bignum.o(.rrx_text), (6 bytes).
    Removing bignum.o(i.bigadd), (324 bytes).
    Removing bignum.o(i.bigmul), (278 bytes).
    Removing bignum.o(i.bigpow), (214 bytes).
    Removing bignum.o(i.bigsub), (266 bytes).
    Removing ecdsa.o(.rev16_text), (4 bytes).
    Removing ecdsa.o(.revsh_text), (4 bytes).
    Removing ecdsa.o(.rrx_text), (6 bytes).
    Removing ecdsa.o(i.Test_Ecc_Sign_Data), (128 bytes).
    Removing ecdsa.o(i.fun_print), (32 bytes).
    Removing ecdsa.o(i.prinfInfo), (188 bytes).
    Removing getaddress.o(.rev16_text), (4 bytes).
    Removing getaddress.o(.revsh_text), (4 bytes).
    Removing getaddress.o(.rrx_text), (6 bytes).
    Removing getaddress.o(i.Alg_Base58Encode), (84 bytes).
    Removing getaddress.o(i.Base58_Decode), (520 bytes).
    Removing getaddress.o(i.Base58_Encode), (148 bytes).
    Removing getaddress.o(i.GetAddressFromPublickey), (308 bytes).
    Removing getaddress.o(.constdata), (4 bytes).
    Removing ripemd160.o(.rev16_text), (4 bytes).
    Removing ripemd160.o(.revsh_text), (4 bytes).
    Removing ripemd160.o(.rrx_text), (6 bytes).
    Removing ripemd160.o(i.DWORDFromLittleEndian), (60 bytes).
    Removing ripemd160.o(i.DWORDToLittleEndian), (62 bytes).
    Removing ripemd160.o(i.F), (10 bytes).
    Removing ripemd160.o(i.G), (16 bytes).
    Removing ripemd160.o(i.H), (12 bytes).
    Removing ripemd160.o(i.I), (16 bytes).
    Removing ripemd160.o(i.J), (12 bytes).
    Removing ripemd160.o(i.MDTransform), (6568 bytes).
    Removing ripemd160.o(i.Ripemd160), (116 bytes).
    Removing ripemd160.o(i._EndHash), (172 bytes).
    Removing ripemd160.o(i._HashData), (204 bytes).
    Removing ripemd160.o(.bss), (320 bytes).
    Removing ripemd160.o(.data), (28 bytes).
    Removing showsign.o(.rev16_text), (4 bytes).
    Removing showsign.o(.revsh_text), (4 bytes).
    Removing showsign.o(.rrx_text), (6 bytes).
    Removing showsign.o(i.Convert2address), (64 bytes).
    Removing showsign.o(i.DecTOAddress), (244 bytes).
    Removing showsign.o(i.DecToHex), (154 bytes).
    Removing showsign.o(i.Div), (180 bytes).
    Removing showsign.o(i.GetIndexFromBuff), (44 bytes).
    Removing showsign.o(i.HexToDec), (284 bytes).
    Removing showsign.o(i.ReverseArray), (52 bytes).
    Removing showsign.o(i.ReverseString), (100 bytes).
    Removing showsign.o(i.StringToHex), (50 bytes).
    Removing showsign.o(i.bigdiv), (416 bytes).
    Removing showsign.o(i.convert2to16), (204 bytes).
    Removing showsign.o(i.strlwr), (42 bytes).
    Removing showsign.o(i.strupr), (36 bytes).
    Removing showsign.o(.bss), (1586 bytes).
    Removing showsign.o(.conststring), (66 bytes).
    Removing showsign.o(.data), (64 bytes).
    Removing stmflash.o(.rev16_text), (4 bytes).
    Removing stmflash.o(.revsh_text), (4 bytes).
    Removing stmflash.o(.rrx_text), (6 bytes).
    Removing stmflash.o(i.STMFLASH_Erase_Sectors), (54 bytes).
    Removing stmflash.o(i.STMFLASH_GetFlashSector), (160 bytes).
    Removing stmflash.o(i.STMFLASH_ReadByte), (6 bytes).
    Removing stmflash.o(i.STMFLASH_ReadHalfWord), (6 bytes).
    Removing stmflash.o(i.STMFLASH_Read_ByteArray), (30 bytes).
    Removing stmflash.o(i.STMFLASH_Write), (168 bytes).
    Removing stmflash.o(i.STMFLASH_WriteHalfWord), (28 bytes).
    Removing system_stm32f4xx.o(.rev16_text), (4 bytes).
    Removing system_stm32f4xx.o(.revsh_text), (4 bytes).
    Removing system_stm32f4xx.o(.rrx_text), (6 bytes).
    Removing system_stm32f4xx.o(i.SystemCoreClockUpdate), (192 bytes).
    Removing stm32f4xx_it.o(.rev16_text), (4 bytes).
    Removing stm32f4xx_it.o(.revsh_text), (4 bytes).
    Removing stm32f4xx_it.o(.rrx_text), (6 bytes).
    Removing main.o(.rev16_text), (4 bytes).
    Removing main.o(.revsh_text), (4 bytes).
    Removing main.o(.rrx_text), (6 bytes).
    Removing stm32f4xx_hal_msp.o(.rev16_text), (4 bytes).
    Removing stm32f4xx_hal_msp.o(.revsh_text), (4 bytes).
    Removing stm32f4xx_hal_msp.o(.rrx_text), (6 bytes).
    Removing stm32f4xx_hal_msp.o(i.HAL_CRC_MspDeInit), (32 bytes).
    Removing stm32f4xx_hal_msp.o(i.HAL_RNG_MspDeInit), (32 bytes).
    Removing sys.o(.rev16_text), (4 bytes).
    Removing sys.o(.revsh_text), (4 bytes).
    Removing sys.o(.rrx_text), (6 bytes).
    Removing stm32f4xx_hal_flash.o(.rev16_text), (4 bytes).
    Removing stm32f4xx_hal_flash.o(.revsh_text), (4 bytes).
    Removing stm32f4xx_hal_flash.o(.rrx_text), (6 bytes).
    Removing stm32f4xx_hal_flash.o(i.HAL_FLASH_EndOfOperationCallback), (2 bytes).
    Removing stm32f4xx_hal_flash.o(i.HAL_FLASH_GetError), (12 bytes).
    Removing stm32f4xx_hal_flash.o(i.HAL_FLASH_IRQHandler), (272 bytes).
    Removing stm32f4xx_hal_flash.o(i.HAL_FLASH_OB_Launch), (28 bytes).
    Removing stm32f4xx_hal_flash.o(i.HAL_FLASH_OB_Lock), (20 bytes).
    Removing stm32f4xx_hal_flash.o(i.HAL_FLASH_OB_Unlock), (44 bytes).
    Removing stm32f4xx_hal_flash.o(i.HAL_FLASH_OperationErrorCallback), (2 bytes).
    Removing stm32f4xx_hal_flash.o(i.HAL_FLASH_Program_IT), (136 bytes).
    Removing stm32f4xx_hal_dma.o(.rev16_text), (4 bytes).
    Removing stm32f4xx_hal_dma.o(.revsh_text), (4 bytes).
    Removing stm32f4xx_hal_dma.o(.rrx_text), (6 bytes).
    Removing stm32f4xx_hal_dma.o(i.DMA_CalcBaseAndBitshift), (52 bytes).
    Removing stm32f4xx_hal_dma.o(i.DMA_CheckFifoParam), (170 bytes).
    Removing stm32f4xx_hal_dma.o(i.DMA_SetConfig), (44 bytes).
    Removing stm32f4xx_hal_dma.o(i.HAL_DMA_Abort), (170 bytes).
    Removing stm32f4xx_hal_dma.o(i.HAL_DMA_Abort_IT), (40 bytes).
    Removing stm32f4xx_hal_dma.o(i.HAL_DMA_DeInit), (98 bytes).
    Removing stm32f4xx_hal_dma.o(i.HAL_DMA_GetError), (6 bytes).
    Removing stm32f4xx_hal_dma.o(i.HAL_DMA_GetState), (8 bytes).
    Removing stm32f4xx_hal_dma.o(i.HAL_DMA_IRQHandler), (576 bytes).
    Removing stm32f4xx_hal_dma.o(i.HAL_DMA_Init), (236 bytes).
    Removing stm32f4xx_hal_dma.o(i.HAL_DMA_PollForTransfer), (346 bytes).
    Removing stm32f4xx_hal_dma.o(i.HAL_DMA_RegisterCallback), (94 bytes).
    Removing stm32f4xx_hal_dma.o(i.HAL_DMA_Start), (102 bytes).
    Removing stm32f4xx_hal_dma.o(i.HAL_DMA_Start_IT), (158 bytes).
    Removing stm32f4xx_hal_dma.o(i.HAL_DMA_UnRegisterCallback), (124 bytes).
    Removing stm32f4xx_hal_dma.o(.constdata), (8 bytes).
    Removing stm32f4xx_hal_flash_ex.o(.rev16_text), (4 bytes).
    Removing stm32f4xx_hal_flash_ex.o(.revsh_text), (4 bytes).
    Removing stm32f4xx_hal_flash_ex.o(.rrx_text), (6 bytes).
    Removing stm32f4xx_hal_flash_ex.o(i.FLASH_Erase_Sector), (92 bytes).
    Removing stm32f4xx_hal_flash_ex.o(i.FLASH_FlushCaches), (120 bytes).
    Removing stm32f4xx_hal_flash_ex.o(i.FLASH_MassErase), (48 bytes).
    Removing stm32f4xx_hal_flash_ex.o(i.FLASH_OB_BOR_LevelConfig), (32 bytes).
    Removing stm32f4xx_hal_flash_ex.o(i.FLASH_OB_DisableWRP), (40 bytes).
    Removing stm32f4xx_hal_flash_ex.o(i.FLASH_OB_EnableWRP), (40 bytes).
    Removing stm32f4xx_hal_flash_ex.o(i.FLASH_OB_GetBOR), (16 bytes).
    Removing stm32f4xx_hal_flash_ex.o(i.FLASH_OB_GetRDP), (36 bytes).
    Removing stm32f4xx_hal_flash_ex.o(i.FLASH_OB_GetUser), (16 bytes).
    Removing stm32f4xx_hal_flash_ex.o(i.FLASH_OB_GetWRP), (12 bytes).
    Removing stm32f4xx_hal_flash_ex.o(i.FLASH_OB_RDP_LevelConfig), (32 bytes).
    Removing stm32f4xx_hal_flash_ex.o(i.FLASH_OB_UserConfig), (60 bytes).
    Removing stm32f4xx_hal_flash_ex.o(i.HAL_FLASHEx_Erase), (172 bytes).
    Removing stm32f4xx_hal_flash_ex.o(i.HAL_FLASHEx_Erase_IT), (120 bytes).
    Removing stm32f4xx_hal_flash_ex.o(i.HAL_FLASHEx_OBGetConfig), (34 bytes).
    Removing stm32f4xx_hal_flash_ex.o(i.HAL_FLASHEx_OBProgram), (148 bytes).
    Removing stm32f4xx_hal_dma_ex.o(.rev16_text), (4 bytes).
    Removing stm32f4xx_hal_dma_ex.o(.revsh_text), (4 bytes).
    Removing stm32f4xx_hal_dma_ex.o(.rrx_text), (6 bytes).
    Removing stm32f4xx_hal_dma_ex.o(i.DMA_MultiBufferSetConfig), (32 bytes).
    Removing stm32f4xx_hal_dma_ex.o(i.HAL_DMAEx_ChangeMemory), (18 bytes).
    Removing stm32f4xx_hal_dma_ex.o(i.HAL_DMAEx_MultiBufferStart), (124 bytes).
    Removing stm32f4xx_hal_dma_ex.o(i.HAL_DMAEx_MultiBufferStart_IT), (4056 bytes).
    Removing stm32f4xx_hal_rcc.o(.rev16_text), (4 bytes).
    Removing stm32f4xx_hal_rcc.o(.revsh_text), (4 bytes).
    Removing stm32f4xx_hal_rcc.o(.rrx_text), (6 bytes).
    Removing stm32f4xx_hal_rcc.o(i.HAL_RCC_CSSCallback), (2 bytes).
    Removing stm32f4xx_hal_rcc.o(i.HAL_RCC_DeInit), (4 bytes).
    Removing stm32f4xx_hal_rcc.o(i.HAL_RCC_DisableCSS), (12 bytes).
    Removing stm32f4xx_hal_rcc.o(i.HAL_RCC_EnableCSS), (12 bytes).
    Removing stm32f4xx_hal_rcc.o(i.HAL_RCC_GetClockConfig), (68 bytes).
    Removing stm32f4xx_hal_rcc.o(i.HAL_RCC_GetOscConfig), (244 bytes).
    Removing stm32f4xx_hal_rcc.o(i.HAL_RCC_GetPCLK1Freq), (32 bytes).
    Removing stm32f4xx_hal_rcc.o(i.HAL_RCC_GetPCLK2Freq), (32 bytes).
    Removing stm32f4xx_hal_rcc.o(i.HAL_RCC_MCOConfig), (192 bytes).
    Removing stm32f4xx_hal_rcc.o(i.HAL_RCC_NMI_IRQHandler), (32 bytes).
    Removing stm32f4xx_hal_gpio.o(.rev16_text), (4 bytes).
    Removing stm32f4xx_hal_gpio.o(.revsh_text), (4 bytes).
    Removing stm32f4xx_hal_gpio.o(.rrx_text), (6 bytes).
    Removing stm32f4xx_hal_gpio.o(i.HAL_GPIO_DeInit), (356 bytes).
    Removing stm32f4xx_hal_gpio.o(i.HAL_GPIO_EXTI_Callback), (2 bytes).
    Removing stm32f4xx_hal_gpio.o(i.HAL_GPIO_EXTI_IRQHandler), (28 bytes).
    Removing stm32f4xx_hal_gpio.o(i.HAL_GPIO_Init), (512 bytes).
    Removing stm32f4xx_hal_gpio.o(i.HAL_GPIO_LockPin), (46 bytes).
    Removing stm32f4xx_hal_gpio.o(i.HAL_GPIO_ReadPin), (16 bytes).
    Removing stm32f4xx_hal_gpio.o(i.HAL_GPIO_TogglePin), (8 bytes).
    Removing stm32f4xx_hal_gpio.o(i.HAL_GPIO_WritePin), (12 bytes).
    Removing stm32f4xx_hal_rcc_ex.o(.rev16_text), (4 bytes).
    Removing stm32f4xx_hal_rcc_ex.o(.revsh_text), (4 bytes).
    Removing stm32f4xx_hal_rcc_ex.o(.rrx_text), (6 bytes).
    Removing stm32f4xx_hal_rcc_ex.o(i.HAL_RCCEx_GetPeriphCLKConfig), (56 bytes).
    Removing stm32f4xx_hal_rcc_ex.o(i.HAL_RCCEx_GetPeriphCLKFreq), (144 bytes).
    Removing stm32f4xx_hal_rcc_ex.o(i.HAL_RCCEx_PeriphCLKConfig), (416 bytes).
    Removing stm32f4xx_hal_rcc_ex.o(i.HAL_RCC_DeInit), (320 bytes).
    Removing stm32f4xx_hal_pwr.o(.rev16_text), (4 bytes).
    Removing stm32f4xx_hal_pwr.o(.revsh_text), (4 bytes).
    Removing stm32f4xx_hal_pwr.o(.rrx_text), (6 bytes).
    Removing stm32f4xx_hal_pwr.o(i.HAL_PWR_ConfigPVD), (180 bytes).
    Removing stm32f4xx_hal_pwr.o(i.HAL_PWR_DeInit), (28 bytes).
    Removing stm32f4xx_hal_pwr.o(i.HAL_PWR_DisableBkUpAccess), (12 bytes).
    Removing stm32f4xx_hal_pwr.o(i.HAL_PWR_DisablePVD), (12 bytes).
    Removing stm32f4xx_hal_pwr.o(i.HAL_PWR_DisableSEVOnPend), (20 bytes).
    Removing stm32f4xx_hal_pwr.o(i.HAL_PWR_DisableSleepOnExit), (20 bytes).
    Removing stm32f4xx_hal_pwr.o(i.HAL_PWR_DisableWakeUpPin), (16 bytes).
    Removing stm32f4xx_hal_pwr.o(i.HAL_PWR_EnableBkUpAccess), (12 bytes).
    Removing stm32f4xx_hal_pwr.o(i.HAL_PWR_EnablePVD), (12 bytes).
    Removing stm32f4xx_hal_pwr.o(i.HAL_PWR_EnableSEVOnPend), (20 bytes).
    Removing stm32f4xx_hal_pwr.o(i.HAL_PWR_EnableSleepOnExit), (20 bytes).
    Removing stm32f4xx_hal_pwr.o(i.HAL_PWR_EnableWakeUpPin), (16 bytes).
    Removing stm32f4xx_hal_pwr.o(i.HAL_PWR_EnterSLEEPMode), (32 bytes).
    Removing stm32f4xx_hal_pwr.o(i.HAL_PWR_EnterSTANDBYMode), (40 bytes).
    Removing stm32f4xx_hal_pwr.o(i.HAL_PWR_EnterSTOPMode), (64 bytes).
    Removing stm32f4xx_hal_pwr.o(i.HAL_PWR_PVDCallback), (2 bytes).
    Removing stm32f4xx_hal_pwr.o(i.HAL_PWR_PVD_IRQHandler), (32 bytes).
    Removing stm32f4xx_hal_tim_ex.o(.rev16_text), (4 bytes).
    Removing stm32f4xx_hal_tim_ex.o(.revsh_text), (4 bytes).
    Removing stm32f4xx_hal_tim_ex.o(.rrx_text), (6 bytes).
    Removing stm32f4xx_hal_cortex.o(.rev16_text), (4 bytes).
    Removing stm32f4xx_hal_cortex.o(.revsh_text), (4 bytes).
    Removing stm32f4xx_hal_cortex.o(.rrx_text), (6 bytes).
    Removing stm32f4xx_hal_cortex.o(i.HAL_MPU_ConfigRegion), (92 bytes).
    Removing stm32f4xx_hal_cortex.o(i.HAL_MPU_Disable), (44 bytes).
    Removing stm32f4xx_hal_cortex.o(i.HAL_MPU_Enable), (64 bytes).
    Removing stm32f4xx_hal_cortex.o(i.HAL_NVIC_ClearPendingIRQ), (28 bytes).
    Removing stm32f4xx_hal_cortex.o(i.HAL_NVIC_EnableIRQ), (26 bytes).
    Removing stm32f4xx_hal_cortex.o(i.HAL_NVIC_GetActive), (40 bytes).
    Removing stm32f4xx_hal_cortex.o(i.HAL_NVIC_GetPendingIRQ), (40 bytes).
    Removing stm32f4xx_hal_cortex.o(i.HAL_NVIC_GetPriority), (148 bytes).
    Removing stm32f4xx_hal_cortex.o(i.HAL_NVIC_GetPriorityGrouping), (8 bytes).
    Removing stm32f4xx_hal_cortex.o(i.HAL_NVIC_SetPendingIRQ), (28 bytes).
    Removing stm32f4xx_hal_cortex.o(i.HAL_NVIC_SystemReset), (68 bytes).
    Removing stm32f4xx_hal_rng.o(.rev16_text), (4 bytes).
    Removing stm32f4xx_hal_rng.o(.revsh_text), (4 bytes).
    Removing stm32f4xx_hal_rng.o(.rrx_text), (6 bytes).
    Removing stm32f4xx_hal_rng.o(i.HAL_RNG_DeInit), (54 bytes).
    Removing stm32f4xx_hal_rng.o(i.HAL_RNG_ErrorCallback), (2 bytes).
    Removing stm32f4xx_hal_rng.o(i.HAL_RNG_GenerateRandomNumber), (118 bytes).
    Removing stm32f4xx_hal_rng.o(i.HAL_RNG_GenerateRandomNumber_IT), (68 bytes).
    Removing stm32f4xx_hal_rng.o(i.HAL_RNG_GetRandomNumber), (24 bytes).
    Removing stm32f4xx_hal_rng.o(i.HAL_RNG_GetRandomNumber_IT), (46 bytes).
    Removing stm32f4xx_hal_rng.o(i.HAL_RNG_GetState), (6 bytes).
    Removing stm32f4xx_hal_rng.o(i.HAL_RNG_IRQHandler), (90 bytes).
    Removing stm32f4xx_hal_rng.o(i.HAL_RNG_MspDeInit), (2 bytes).
    Removing stm32f4xx_hal_rng.o(i.HAL_RNG_MspInit), (2 bytes).
    Removing stm32f4xx_hal_rng.o(i.HAL_RNG_ReadLastRandomNumber), (6 bytes).
    Removing stm32f4xx_hal_rng.o(i.HAL_RNG_ReadyDataCallback), (2 bytes).
    Removing stm32f4xx_hal_tim.o(.rev16_text), (4 bytes).
    Removing stm32f4xx_hal_tim.o(.revsh_text), (4 bytes).
    Removing stm32f4xx_hal_tim.o(.rrx_text), (6 bytes).
    Removing stm32f4xx_hal_flash_ramfunc.o(.rev16_text), (4 bytes).
    Removing stm32f4xx_hal_flash_ramfunc.o(.revsh_text), (4 bytes).
    Removing stm32f4xx_hal_flash_ramfunc.o(.rrx_text), (6 bytes).
    Removing stm32f4xx_hal_crc.o(.rev16_text), (4 bytes).
    Removing stm32f4xx_hal_crc.o(.revsh_text), (4 bytes).
    Removing stm32f4xx_hal_crc.o(.rrx_text), (6 bytes).
    Removing stm32f4xx_hal_crc.o(i.HAL_CRC_Accumulate), (66 bytes).
    Removing stm32f4xx_hal_crc.o(i.HAL_CRC_Calculate), (78 bytes).
    Removing stm32f4xx_hal_crc.o(i.HAL_CRC_DeInit), (34 bytes).
    Removing stm32f4xx_hal_crc.o(i.HAL_CRC_GetState), (6 bytes).
    Removing stm32f4xx_hal_crc.o(i.HAL_CRC_MspDeInit), (2 bytes).
    Removing stm32f4xx_hal_crc.o(i.HAL_CRC_MspInit), (2 bytes).
    Removing stm32f4xx_hal_pwr_ex.o(.rev16_text), (4 bytes).
    Removing stm32f4xx_hal_pwr_ex.o(.revsh_text), (4 bytes).
    Removing stm32f4xx_hal_pwr_ex.o(.rrx_text), (6 bytes).
    Removing stm32f4xx_hal_pwr_ex.o(i.HAL_PWREx_ControlVoltageScaling), (120 bytes).
    Removing stm32f4xx_hal_pwr_ex.o(i.HAL_PWREx_DisableBkUpReg), (60 bytes).
    Removing stm32f4xx_hal_pwr_ex.o(i.HAL_PWREx_DisableFlashPowerDown), (12 bytes).
    Removing stm32f4xx_hal_pwr_ex.o(i.HAL_PWREx_EnableBkUpReg), (60 bytes).
    Removing stm32f4xx_hal_pwr_ex.o(i.HAL_PWREx_EnableFlashPowerDown), (12 bytes).
    Removing stm32f4xx_hal_pwr_ex.o(i.HAL_PWREx_GetVoltageRange), (16 bytes).
    Removing stm32f4xx_hal.o(.rev16_text), (4 bytes).
    Removing stm32f4xx_hal.o(.revsh_text), (4 bytes).
    Removing stm32f4xx_hal.o(.rrx_text), (6 bytes).
    Removing stm32f4xx_hal.o(i.HAL_DBGMCU_DisableDBGSleepMode), (20 bytes).
    Removing stm32f4xx_hal.o(i.HAL_DBGMCU_DisableDBGStandbyMode), (20 bytes).
    Removing stm32f4xx_hal.o(i.HAL_DBGMCU_DisableDBGStopMode), (20 bytes).
    Removing stm32f4xx_hal.o(i.HAL_DBGMCU_EnableDBGSleepMode), (20 bytes).
    Removing stm32f4xx_hal.o(i.HAL_DBGMCU_EnableDBGStandbyMode), (20 bytes).
    Removing stm32f4xx_hal.o(i.HAL_DBGMCU_EnableDBGStopMode), (20 bytes).
    Removing stm32f4xx_hal.o(i.HAL_Delay), (30 bytes).
    Removing stm32f4xx_hal.o(i.HAL_DisableCompensationCell), (12 bytes).
    Removing stm32f4xx_hal.o(i.HAL_EnableCompensationCell), (12 bytes).
    Removing stm32f4xx_hal.o(i.HAL_GetDEVID), (16 bytes).
    Removing stm32f4xx_hal.o(i.HAL_GetHalVersion), (8 bytes).
    Removing stm32f4xx_hal.o(i.HAL_GetREVID), (12 bytes).
    Removing stm32f4xx_hal.o(i.HAL_GetUID), (28 bytes).
    Removing stm32f4xx_hal.o(i.HAL_MspInit), (2 bytes).
    Removing stm32f4xx_hal.o(i.HAL_ResumeTick), (18 bytes).
    Removing stm32f4xx_hal.o(i.HAL_SuspendTick), (18 bytes).
    Removing crypto.o(.rev16_text), (4 bytes).
    Removing crypto.o(.revsh_text), (4 bytes).
    Removing crypto.o(i.AES128_decrypt), (772 bytes).
    Removing crypto.o(i.AES128_keyschedule_dec), (308 bytes).
    Removing crypto.o(i.AES192_decrypt), (768 bytes).
    Removing crypto.o(i.AES192_encrypt), (788 bytes).
    Removing crypto.o(i.AES192_keyschedule_dec), (288 bytes).
    Removing crypto.o(i.AES192_keyschedule_enc), (152 bytes).
    Removing crypto.o(i.AES256_decrypt), (772 bytes).
    Removing crypto.o(i.AES256_encrypt), (792 bytes).
    Removing crypto.o(i.AES256_keyschedule_dec), (288 bytes).
    Removing crypto.o(i.AES256_keyschedule_enc), (220 bytes).
    Removing crypto.o(i.AES_CBC_Decrypt_Append), (658 bytes).
    Removing crypto.o(i.AES_CBC_Decrypt_Finish), (26 bytes).
    Removing crypto.o(i.AES_CBC_Decrypt_Init), (6 bytes).
    Removing crypto.o(i.AES_CBC_Encrypt_Append), (514 bytes).
    Removing crypto.o(i.AES_CBC_Encrypt_Finish), (26 bytes).
    Removing crypto.o(i.AES_CBC_Encrypt_Init), (6 bytes).
    Removing crypto.o(i.AES_CCM_Decrypt_Append), (600 bytes).
    Removing crypto.o(i.AES_CCM_Decrypt_Finish), (392 bytes).
    Removing crypto.o(i.AES_CCM_Decrypt_Init), (4 bytes).
    Removing crypto.o(i.AES_CCM_Encrypt_Append), (1166 bytes).
    Removing crypto.o(i.AES_CCM_Encrypt_Finish), (256 bytes).
    Removing crypto.o(i.AES_CCM_Encrypt_Init), (660 bytes).
    Removing crypto.o(i.AES_CCM_Header_Append), (560 bytes).
    Removing crypto.o(i.AES_CMAC_Decrypt_Append), (4 bytes).
    Removing crypto.o(i.AES_CMAC_Decrypt_Finish), (308 bytes).
    Removing crypto.o(i.AES_CMAC_Decrypt_Init), (46 bytes).
    Removing crypto.o(i.AES_CMAC_Encrypt_Append), (1044 bytes).
    Removing crypto.o(i.AES_CMAC_Encrypt_Finish), (180 bytes).
    Removing crypto.o(i.AES_CMAC_Encrypt_Init), (46 bytes).
    Removing crypto.o(i.AES_CTR_Decrypt_Append), (16 bytes).
    Removing crypto.o(i.AES_CTR_Decrypt_Finish), (26 bytes).
    Removing crypto.o(i.AES_CTR_Decrypt_Init), (6 bytes).
    Removing crypto.o(i.AES_CTR_Encrypt_Append), (700 bytes).
    Removing crypto.o(i.AES_CTR_Encrypt_Finish), (26 bytes).
    Removing crypto.o(i.AES_CTR_Encrypt_Init), (6 bytes).
    Removing crypto.o(i.AES_ECB_Decrypt_Append), (196 bytes).
    Removing crypto.o(i.AES_ECB_Decrypt_Finish), (26 bytes).
    Removing crypto.o(i.AES_ECB_Decrypt_Init), (6 bytes).
    Removing crypto.o(i.AES_ECB_Encrypt_Append), (196 bytes).
    Removing crypto.o(i.AES_ECB_Encrypt_Finish), (26 bytes).
    Removing crypto.o(i.AES_ECB_Encrypt_Init), (6 bytes).
    Removing crypto.o(i.AES_GCM_Decrypt_Append), (22 bytes).
    Removing crypto.o(i.AES_GCM_Decrypt_Finish), (8 bytes).
    Removing crypto.o(i.AES_GCM_Decrypt_Init), (4 bytes).
    Removing crypto.o(i.AES_GCM_Encrypt_Append), (22 bytes).
    Removing crypto.o(i.AES_GCM_Encrypt_Finish), (6 bytes).
    Removing crypto.o(i.AES_GCM_Encrypt_Init), (1080 bytes).
    Removing crypto.o(i.AES_GCM_Header_Append), (406 bytes).
    Removing crypto.o(i.AES_KeyWrap_Decrypt_Append), (302 bytes).
    Removing crypto.o(i.AES_KeyWrap_Decrypt_Finish), (50 bytes).
    Removing crypto.o(i.AES_KeyWrap_Decrypt_Init), (20 bytes).
    Removing crypto.o(i.AES_KeyWrap_Encrypt_Append), (376 bytes).
    Removing crypto.o(i.AES_KeyWrap_Encrypt_Finish), (26 bytes).
    Removing crypto.o(i.AES_KeyWrap_Encrypt_Init), (20 bytes).
    Removing crypto.o(i.AESgcmAppend), (1142 bytes).
    Removing crypto.o(i.AESgcmFinal), (570 bytes).
    Removing crypto.o(i.AESstdInit), (420 bytes).
    Removing crypto.o(i.ARC4_Decrypt_Append), (16 bytes).
    Removing crypto.o(i.ARC4_Decrypt_Finish), (26 bytes).
    Removing crypto.o(i.ARC4_Decrypt_Init), (132 bytes).
    Removing crypto.o(i.ARC4_Encrypt_Append), (348 bytes).
    Removing crypto.o(i.ARC4_Encrypt_Finish), (26 bytes).
    Removing crypto.o(i.ARC4_Encrypt_Init), (130 bytes).
    Removing crypto.o(i.CountBytes), (50 bytes).
    Removing crypto.o(i.DES_CBC_Decrypt_Append), (196 bytes).
    Removing crypto.o(i.DES_CBC_Decrypt_Finish), (26 bytes).
    Removing crypto.o(i.DES_CBC_Decrypt_Init), (6 bytes).
    Removing crypto.o(i.DES_CBC_Encrypt_Append), (160 bytes).
    Removing crypto.o(i.DES_CBC_Encrypt_Finish), (26 bytes).
    Removing crypto.o(i.DES_CBC_Encrypt_Init), (6 bytes).
    Removing crypto.o(i.DES_ECB_Decrypt_Append), (172 bytes).
    Removing crypto.o(i.DES_ECB_Decrypt_Finish), (26 bytes).
    Removing crypto.o(i.DES_ECB_Decrypt_Init), (6 bytes).
    Removing crypto.o(i.DES_ECB_Encrypt_Append), (172 bytes).
    Removing crypto.o(i.DES_ECB_Encrypt_Finish), (26 bytes).
    Removing crypto.o(i.DES_ECB_Encrypt_Init), (6 bytes).
    Removing crypto.o(i.DESstdInit), (248 bytes).
    Removing crypto.o(i.ECCgetPointFlag), (12 bytes).
    Removing crypto.o(i.ECCgetPrivKeyValue), (128 bytes).
    Removing crypto.o(i.ECCkeyGen), (368 bytes).
    Removing crypto.o(i.ECCpoint2Monty), (70 bytes).
    Removing crypto.o(i.ECCpointFromMonty), (72 bytes).
    Removing crypto.o(i.ECCsetPointCoordinate), (74 bytes).
    Removing crypto.o(i.ECCsetPointFlag), (8 bytes).
    Removing crypto.o(i.ECCsymmetricPoint), (42 bytes).
    Removing crypto.o(i.ECDSAsetSignature), (48 bytes).
    Removing crypto.o(i.ECDSAverify), (810 bytes).
    Removing crypto.o(i.EvenBig), (16 bytes).
    Removing crypto.o(i.FastDivInnerBase), (64 bytes).
    Removing crypto.o(i.FastMul2), (110 bytes).
    Removing crypto.o(i.FastMulInnerBase), (164 bytes).
    Removing crypto.o(i.GenRndBN), (128 bytes).
    Removing crypto.o(i.GenRndBNmodN), (172 bytes).
    Removing crypto.o(i.GiveBit), (30 bytes).
    Removing crypto.o(i.HMAC_MD5_Append), (52 bytes).
    Removing crypto.o(i.HMAC_MD5_Finish), (180 bytes).
    Removing crypto.o(i.HMAC_MD5_Init), (348 bytes).
    Removing crypto.o(i.HMAC_SHA1_Append), (16 bytes).
    Removing crypto.o(i.HMAC_SHA1_Finish), (160 bytes).
    Removing crypto.o(i.HMAC_SHA1_Init), (340 bytes).
    Removing crypto.o(i.HMAC_SHA224_Append), (52 bytes).
    Removing crypto.o(i.HMAC_SHA224_Finish), (220 bytes).
    Removing crypto.o(i.HMAC_SHA224_Init), (408 bytes).
    Removing crypto.o(i.HMAC_SHA256_Append), (52 bytes).
    Removing crypto.o(i.HMAC_SHA256_Finish), (220 bytes).
    Removing crypto.o(i.HMAC_SHA256_Init), (408 bytes).
    Removing crypto.o(i.IsZeroBig), (22 bytes).
    Removing crypto.o(i.MD5_Append), (42 bytes).
    Removing crypto.o(i.MD5_Finish), (144 bytes).
    Removing crypto.o(i.MD5_Init), (60 bytes).
    Removing crypto.o(i.ModularExpSlidWin), (616 bytes).
    Removing crypto.o(i.ModularSubBig), (40 bytes).
    Removing crypto.o(i.MontyKillR2), (38 bytes).
    Removing crypto.o(i.MulBigbyUnInt), (112 bytes).
    Removing crypto.o(i.RNGgenWords), (6 bytes).
    Removing crypto.o(i.RNGreseed), (206 bytes).
    Removing crypto.o(i.RSASP1), (100 bytes).
    Removing crypto.o(i.RSAVP1), (34 bytes).
    Removing crypto.o(i.RSA_PKCS1v15_Sign), (640 bytes).
    Removing crypto.o(i.RSA_PKCS1v15_Verify), (744 bytes).
    Removing crypto.o(i.RightShift), (176 bytes).
    Removing crypto.o(i.SHA1Final), (392 bytes).
    Removing crypto.o(i.SHA1Init), (48 bytes).
    Removing crypto.o(i.SHA1Transform), (892 bytes).
    Removing crypto.o(i.SHA1Update), (154 bytes).
    Removing crypto.o(i.SHA1_Append), (188 bytes).
    Removing crypto.o(i.SHA1_Finish), (144 bytes).
    Removing crypto.o(i.SHA1_Init), (68 bytes).
    Removing crypto.o(i.SHA224Final), (390 bytes).
    Removing crypto.o(i.SHA224Init), (72 bytes).
    Removing crypto.o(i.SHA224_Append), (42 bytes).
    Removing crypto.o(i.SHA224_Finish), (144 bytes).
    Removing crypto.o(i.SHA224_Init), (92 bytes).
    Removing crypto.o(i.SHA256Init), (72 bytes).
    Removing crypto.o(i.SignBig), (10 bytes).
    Removing crypto.o(i.TDES_CBC_Decrypt_Append), (216 bytes).
    Removing crypto.o(i.TDES_CBC_Decrypt_Finish), (26 bytes).
    Removing crypto.o(i.TDES_CBC_Decrypt_Init), (6 bytes).
    Removing crypto.o(i.TDES_CBC_Encrypt_Append), (184 bytes).
    Removing crypto.o(i.TDES_CBC_Encrypt_Finish), (26 bytes).
    Removing crypto.o(i.TDES_CBC_Encrypt_Init), (6 bytes).
    Removing crypto.o(i.TDES_ECB_Decrypt_Append), (192 bytes).
    Removing crypto.o(i.TDES_ECB_Decrypt_Finish), (26 bytes).
    Removing crypto.o(i.TDES_ECB_Decrypt_Init), (6 bytes).
    Removing crypto.o(i.TDES_ECB_Encrypt_Append), (192 bytes).
    Removing crypto.o(i.TDES_ECB_Encrypt_Finish), (26 bytes).
    Removing crypto.o(i.TDES_ECB_Encrypt_Init), (6 bytes).
    Removing crypto.o(i.TDESstdInit), (292 bytes).
    Removing crypto.o(i.W32_to_W8), (124 bytes).
    Removing crypto.o(i.crl_DRBG_AES128_Instantiate), (188 bytes).
    Removing crypto.o(i.crl_DRBG_AES128_Reseed), (164 bytes).
    Removing crypto.o(i.crl_ModularExp), (556 bytes).
    Removing crypto.o(i.crl_u_MD5_Finish), (216 bytes).
    Removing crypto.o(i.crl_u_MD5_Init), (40 bytes).
    Removing crypto.o(i.crl_u_MD5_Update), (150 bytes).
    Removing crypto.o(i.desfunc), (476 bytes).
    Removing crypto.o(i.deskey), (608 bytes).
    Removing crypto.o(i.gfmul), (364 bytes).
    Removing crypto.o(i.md5_process), (2064 bytes).
    Removing stm32f4xx_rcc.o(.rev16_text), (4 bytes).
    Removing stm32f4xx_rcc.o(.revsh_text), (4 bytes).
    Removing stm32f4xx_rcc.o(i.RCC_AHB1PeriphClockLPModeCmd), (32 bytes).
    Removing stm32f4xx_rcc.o(i.RCC_AHB1PeriphResetCmd), (32 bytes).
    Removing stm32f4xx_rcc.o(i.RCC_AHB2PeriphClockLPModeCmd), (32 bytes).
    Removing stm32f4xx_rcc.o(i.RCC_AHB3PeriphClockCmd), (32 bytes).
    Removing stm32f4xx_rcc.o(i.RCC_AHB3PeriphClockLPModeCmd), (32 bytes).
    Removing stm32f4xx_rcc.o(i.RCC_AHB3PeriphResetCmd), (32 bytes).
    Removing stm32f4xx_rcc.o(i.RCC_APB1PeriphClockCmd), (32 bytes).
    Removing stm32f4xx_rcc.o(i.RCC_APB1PeriphClockLPModeCmd), (32 bytes).
    Removing stm32f4xx_rcc.o(i.RCC_APB1PeriphResetCmd), (32 bytes).
    Removing stm32f4xx_rcc.o(i.RCC_APB2PeriphClockCmd), (32 bytes).
    Removing stm32f4xx_rcc.o(i.RCC_APB2PeriphClockLPModeCmd), (32 bytes).
    Removing stm32f4xx_rcc.o(i.RCC_APB2PeriphResetCmd), (32 bytes).
    Removing stm32f4xx_rcc.o(i.RCC_AdjustHSICalibrationValue), (24 bytes).
    Removing stm32f4xx_rcc.o(i.RCC_BackupResetCmd), (12 bytes).
    Removing stm32f4xx_rcc.o(i.RCC_ClearFlag), (20 bytes).
    Removing stm32f4xx_rcc.o(i.RCC_ClearITPendingBit), (12 bytes).
    Removing stm32f4xx_rcc.o(i.RCC_ClockSecuritySystemCmd), (12 bytes).
    Removing stm32f4xx_rcc.o(i.RCC_DeInit), (100 bytes).
    Removing stm32f4xx_rcc.o(i.RCC_GetClocksFreq), (232 bytes).
    Removing stm32f4xx_rcc.o(i.RCC_GetFlagStatus), (64 bytes).
    Removing stm32f4xx_rcc.o(i.RCC_GetITStatus), (24 bytes).
    Removing stm32f4xx_rcc.o(i.RCC_GetSYSCLKSource), (16 bytes).
    Removing stm32f4xx_rcc.o(i.RCC_HCLKConfig), (24 bytes).
    Removing stm32f4xx_rcc.o(i.RCC_HSEConfig), (16 bytes).
    Removing stm32f4xx_rcc.o(i.RCC_HSICmd), (12 bytes).
    Removing stm32f4xx_rcc.o(i.RCC_I2SCLKConfig), (12 bytes).
    Removing stm32f4xx_rcc.o(i.RCC_ITConfig), (32 bytes).
    Removing stm32f4xx_rcc.o(i.RCC_LSEConfig), (44 bytes).
    Removing stm32f4xx_rcc.o(i.RCC_LSEModeConfig), (36 bytes).
    Removing stm32f4xx_rcc.o(i.RCC_LSICmd), (12 bytes).
    Removing stm32f4xx_rcc.o(i.RCC_LTDCCLKDivConfig), (24 bytes).
    Removing stm32f4xx_rcc.o(i.RCC_MCO1Config), (28 bytes).
    Removing stm32f4xx_rcc.o(i.RCC_MCO2Config), (28 bytes).
    Removing stm32f4xx_rcc.o(i.RCC_PCLK1Config), (24 bytes).
    Removing stm32f4xx_rcc.o(i.RCC_PCLK2Config), (24 bytes).
    Removing stm32f4xx_rcc.o(i.RCC_PLLCmd), (12 bytes).
    Removing stm32f4xx_rcc.o(i.RCC_PLLConfig), (36 bytes).
    Removing stm32f4xx_rcc.o(i.RCC_PLLI2SCmd), (12 bytes).
    Removing stm32f4xx_rcc.o(i.RCC_PLLI2SConfig), (16 bytes).
    Removing stm32f4xx_rcc.o(i.RCC_PLLSAICmd), (12 bytes).
    Removing stm32f4xx_rcc.o(i.RCC_PLLSAIConfig), (24 bytes).
    Removing stm32f4xx_rcc.o(i.RCC_RTCCLKCmd), (12 bytes).
    Removing stm32f4xx_rcc.o(i.RCC_RTCCLKConfig), (60 bytes).
    Removing stm32f4xx_rcc.o(i.RCC_SAIBlockACLKConfig), (24 bytes).
    Removing stm32f4xx_rcc.o(i.RCC_SAIBlockBCLKConfig), (24 bytes).
    Removing stm32f4xx_rcc.o(i.RCC_SAIPLLI2SClkDivConfig), (28 bytes).
    Removing stm32f4xx_rcc.o(i.RCC_SAIPLLSAIClkDivConfig), (28 bytes).
    Removing stm32f4xx_rcc.o(i.RCC_SYSCLKConfig), (24 bytes).
    Removing stm32f4xx_rcc.o(i.RCC_TIMCLKPresConfig), (12 bytes).
    Removing stm32f4xx_rcc.o(i.RCC_WaitForHSEStartUp), (56 bytes).
    Removing stm32f4xx_rcc.o(.data), (16 bytes).
    Removing stm32f4xx_rng.o(.rev16_text), (4 bytes).
    Removing stm32f4xx_rng.o(.revsh_text), (4 bytes).
    Removing stm32f4xx_rng.o(i.RNG_ClearFlag), (16 bytes).
    Removing stm32f4xx_rng.o(i.RNG_ClearITPendingBit), (16 bytes).
    Removing stm32f4xx_rng.o(i.RNG_GetFlagStatus), (24 bytes).
    Removing stm32f4xx_rng.o(i.RNG_GetITStatus), (24 bytes).
    Removing stm32f4xx_rng.o(i.RNG_GetRandomNumber), (12 bytes).
    Removing stm32f4xx_rng.o(i.RNG_ITConfig), (36 bytes).
    Removing dneg.o(.text), (6 bytes).
    Removing cdcmple.o(.text), (48 bytes).

491 unused section(s) (total 65700 bytes) removed from the image.

==============================================================================

Image Symbol Table

    Local Symbols

    Symbol Name                              Value     Ov Type        Size  Object(Section)

    ../Drivers/STM32F4xx_HAL_Driver/Src/stm32f4xx_hal.c 0x00000000   Number         0  stm32f4xx_hal.o ABSOLUTE
    ../Drivers/STM32F4xx_HAL_Driver/Src/stm32f4xx_hal_cortex.c 0x00000000   Number         0  stm32f4xx_hal_cortex.o ABSOLUTE
    ../Drivers/STM32F4xx_HAL_Driver/Src/stm32f4xx_hal_crc.c 0x00000000   Number         0  stm32f4xx_hal_crc.o ABSOLUTE
    ../Drivers/STM32F4xx_HAL_Driver/Src/stm32f4xx_hal_dma.c 0x00000000   Number         0  stm32f4xx_hal_dma.o ABSOLUTE
    ../Drivers/STM32F4xx_HAL_Driver/Src/stm32f4xx_hal_dma_ex.c 0x00000000   Number         0  stm32f4xx_hal_dma_ex.o ABSOLUTE
    ../Drivers/STM32F4xx_HAL_Driver/Src/stm32f4xx_hal_flash.c 0x00000000   Number         0  stm32f4xx_hal_flash.o ABSOLUTE
    ../Drivers/STM32F4xx_HAL_Driver/Src/stm32f4xx_hal_flash_ex.c 0x00000000   Number         0  stm32f4xx_hal_flash_ex.o ABSOLUTE
    ../Drivers/STM32F4xx_HAL_Driver/Src/stm32f4xx_hal_flash_ramfunc.c 0x00000000   Number         0  stm32f4xx_hal_flash_ramfunc.o ABSOLUTE
    ../Drivers/STM32F4xx_HAL_Driver/Src/stm32f4xx_hal_gpio.c 0x00000000   Number         0  stm32f4xx_hal_gpio.o ABSOLUTE
    ../Drivers/STM32F4xx_HAL_Driver/Src/stm32f4xx_hal_pwr.c 0x00000000   Number         0  stm32f4xx_hal_pwr.o ABSOLUTE
    ../Drivers/STM32F4xx_HAL_Driver/Src/stm32f4xx_hal_pwr_ex.c 0x00000000   Number         0  stm32f4xx_hal_pwr_ex.o ABSOLUTE
    ../Drivers/STM32F4xx_HAL_Driver/Src/stm32f4xx_hal_rcc.c 0x00000000   Number         0  stm32f4xx_hal_rcc.o ABSOLUTE
    ../Drivers/STM32F4xx_HAL_Driver/Src/stm32f4xx_hal_rcc_ex.c 0x00000000   Number         0  stm32f4xx_hal_rcc_ex.o ABSOLUTE
    ../Drivers/STM32F4xx_HAL_Driver/Src/stm32f4xx_hal_rng.c 0x00000000   Number         0  stm32f4xx_hal_rng.o ABSOLUTE
    ../Drivers/STM32F4xx_HAL_Driver/Src/stm32f4xx_hal_tim.c 0x00000000   Number         0  stm32f4xx_hal_tim.o ABSOLUTE
    ../Drivers/STM32F4xx_HAL_Driver/Src/stm32f4xx_hal_tim_ex.c 0x00000000   Number         0  stm32f4xx_hal_tim_ex.o ABSOLUTE
    ../Src/main.c                            0x00000000   Number         0  main.o ABSOLUTE
    ../Src/stm32f4xx_hal_msp.c               0x00000000   Number         0  stm32f4xx_hal_msp.o ABSOLUTE
    ../Src/stm32f4xx_it.c                    0x00000000   Number         0  stm32f4xx_it.o ABSOLUTE
    ../Src/system_stm32f4xx.c                0x00000000   Number         0  system_stm32f4xx.o ABSOLUTE
    ../clib/microlib/ctype/ctype.c           0x00000000   Number         0  islower_o.o ABSOLUTE
    ../clib/microlib/ctype/ctype.c           0x00000000   Number         0  isgraph_o.o ABSOLUTE
    ../clib/microlib/ctype/ctype.c           0x00000000   Number         0  ctype_o.o ABSOLUTE
    ../clib/microlib/ctype/ctype.c           0x00000000   Number         0  isdigit_o.o ABSOLUTE
    ../clib/microlib/ctype/ctype.c           0x00000000   Number         0  isalnum_o.o ABSOLUTE
    ../clib/microlib/ctype/ctype.c           0x00000000   Number         0  iscntrl_o.o ABSOLUTE
    ../clib/microlib/ctype/ctype.c           0x00000000   Number         0  isalpha_o.o ABSOLUTE
    ../clib/microlib/ctype/ctype.c           0x00000000   Number         0  isprint_o.o ABSOLUTE
    ../clib/microlib/ctype/ctype.c           0x00000000   Number         0  isblank_o.o ABSOLUTE
    ../clib/microlib/ctype/ctype.c           0x00000000   Number         0  isspace_o.o ABSOLUTE
    ../clib/microlib/ctype/ctype.c           0x00000000   Number         0  isupper_o.o ABSOLUTE
    ../clib/microlib/ctype/ctype.c           0x00000000   Number         0  isxdigit_o.o ABSOLUTE
    ../clib/microlib/ctype/ctype.c           0x00000000   Number         0  ispunct_o.o ABSOLUTE
    ../clib/microlib/division.c              0x00000000   Number         0  uidiv.o ABSOLUTE
    ../clib/microlib/division.c              0x00000000   Number         0  uldiv.o ABSOLUTE
    ../clib/microlib/errno.c                 0x00000000   Number         0  errno.o ABSOLUTE
    ../clib/microlib/init/entry.s            0x00000000   Number         0  entry10a.o ABSOLUTE
    ../clib/microlib/init/entry.s            0x00000000   Number         0  entry11b.o ABSOLUTE
    ../clib/microlib/init/entry.s            0x00000000   Number         0  entry2.o ABSOLUTE
    ../clib/microlib/init/entry.s            0x00000000   Number         0  entry7a.o ABSOLUTE
    ../clib/microlib/init/entry.s            0x00000000   Number         0  entry5.o ABSOLUTE
    ../clib/microlib/init/entry.s            0x00000000   Number         0  entry7b.o ABSOLUTE
    ../clib/microlib/init/entry.s            0x00000000   Number         0  entry10b.o ABSOLUTE
    ../clib/microlib/init/entry.s            0x00000000   Number         0  entry9a.o ABSOLUTE
    ../clib/microlib/init/entry.s            0x00000000   Number         0  entry8a.o ABSOLUTE
    ../clib/microlib/init/entry.s            0x00000000   Number         0  entry.o ABSOLUTE
    ../clib/microlib/init/entry.s            0x00000000   Number         0  entry11a.o ABSOLUTE
    ../clib/microlib/init/entry.s            0x00000000   Number         0  entry8b.o ABSOLUTE
    ../clib/microlib/init/entry.s            0x00000000   Number         0  entry9b.o ABSOLUTE
    ../clib/microlib/longlong.c              0x00000000   Number         0  llsshr.o ABSOLUTE
    ../clib/microlib/longlong.c              0x00000000   Number         0  llshl.o ABSOLUTE
    ../clib/microlib/longlong.c              0x00000000   Number         0  llushr.o ABSOLUTE
    ../clib/microlib/malloc/malloc.c         0x00000000   Number         0  malloca.o ABSOLUTE
    ../clib/microlib/malloc/malloc.c         0x00000000   Number         0  malloc.o ABSOLUTE
    ../clib/microlib/malloc/malloc.c         0x00000000   Number         0  mallocr.o ABSOLUTE
    ../clib/microlib/malloc/malloc.c         0x00000000   Number         0  mallocra.o ABSOLUTE
    ../clib/microlib/malloc/mvars.c          0x00000000   Number         0  mvars.o ABSOLUTE
    ../clib/microlib/printf/printf.c         0x00000000   Number         0  printf4.o ABSOLUTE
    ../clib/microlib/printf/printf.c         0x00000000   Number         0  printf3.o ABSOLUTE
    ../clib/microlib/printf/printf.c         0x00000000   Number         0  printf2.o ABSOLUTE
    ../clib/microlib/printf/printf.c         0x00000000   Number         0  printf1.o ABSOLUTE
    ../clib/microlib/printf/printf.c         0x00000000   Number         0  printf0.o ABSOLUTE
    ../clib/microlib/printf/printf.c         0x00000000   Number         0  printfb.o ABSOLUTE
    ../clib/microlib/printf/printf.c         0x00000000   Number         0  printfa.o ABSOLUTE
    ../clib/microlib/printf/printf.c         0x00000000   Number         0  printf8.o ABSOLUTE
    ../clib/microlib/printf/printf.c         0x00000000   Number         0  printf7.o ABSOLUTE
    ../clib/microlib/printf/printf.c         0x00000000   Number         0  printf6.o ABSOLUTE
    ../clib/microlib/printf/printf.c         0x00000000   Number         0  printf5.o ABSOLUTE
    ../clib/microlib/printf/stubs.s          0x00000000   Number         0  stubs.o ABSOLUTE
    ../clib/microlib/stdio/fputc.c           0x00000000   Number         0  fputc.o ABSOLUTE
    ../clib/microlib/stdio/semi.s            0x00000000   Number         0  semi.o ABSOLUTE
    ../clib/microlib/stdio/streams.c         0x00000000   Number         0  stdout.o ABSOLUTE
    ../clib/microlib/string/memcpy.c         0x00000000   Number         0  memcpyb.o ABSOLUTE
    ../clib/microlib/string/memcpy.c         0x00000000   Number         0  memcpya.o ABSOLUTE
    ../clib/microlib/string/memcpy.c         0x00000000   Number         0  memmovea.o ABSOLUTE
    ../clib/microlib/string/memcpy.c         0x00000000   Number         0  memmoveb.o ABSOLUTE
    ../clib/microlib/string/memset.c         0x00000000   Number         0  memseta.o ABSOLUTE
    ../clib/microlib/string/strcmp.c         0x00000000   Number         0  strcmp.o ABSOLUTE
    ../clib/microlib/string/strcpy.c         0x00000000   Number         0  strcpy.o ABSOLUTE
    ../clib/microlib/string/strlen.c         0x00000000   Number         0  strlen.o ABSOLUTE
    ../clib/microlib/stubs.s                 0x00000000   Number         0  iusesemip.o ABSOLUTE
    ../clib/microlib/stubs.s                 0x00000000   Number         0  iusefp.o ABSOLUTE
    ../fplib/microlib/fpadd.c                0x00000000   Number         0  dadd.o ABSOLUTE
    ../fplib/microlib/fpdiv.c                0x00000000   Number         0  ddiv.o ABSOLUTE
    ../fplib/microlib/fpepilogue.c           0x00000000   Number         0  depilogue.o ABSOLUTE
    ../fplib/microlib/fpfix.c                0x00000000   Number         0  dfixul.o ABSOLUTE
    ../fplib/microlib/fpfix.c                0x00000000   Number         0  dfixl.o ABSOLUTE
    ../fplib/microlib/fpflt.c                0x00000000   Number         0  dfltl.o ABSOLUTE
    ../fplib/microlib/fpflt.c                0x00000000   Number         0  dflti.o ABSOLUTE
    ../fplib/microlib/fpmul.c                0x00000000   Number         0  dmul.o ABSOLUTE
    ../fplib/microlib/fpneg.c                0x00000000   Number         0  dneg.o ABSOLUTE
    ../fplib/microlib/fpscalb.c              0x00000000   Number         0  dscalb.o ABSOLUTE
    ../fplib/microlib/fpsqrt.c               0x00000000   Number         0  dsqrt.o ABSOLUTE
    ../mathlib/dunder.c                      0x00000000   Number         0  dunder.o ABSOLUTE
    ../mathlib/fabs.c                        0x00000000   Number         0  fabs.o ABSOLUTE
    ../mathlib/fpclassify.c                  0x00000000   Number         0  fpclassify.o ABSOLUTE
    ../mathlib/poly.c                        0x00000000   Number         0  poly.o ABSOLUTE
    ../mathlib/pow.c                         0x00000000   Number         0  pow_x.o ABSOLUTE
    ../mathlib/pow.c                         0x00000000   Number         0  pow.o ABSOLUTE
    ../mathlib/qnan.c                        0x00000000   Number         0  qnan.o ABSOLUTE
    ../mathlib/sqrt.c                        0x00000000   Number         0  sqrt.o ABSOLUTE
    ../mathlib/sqrt.c                        0x00000000   Number         0  sqrt_x.o ABSOLUTE
    ..\Algorithm\bignum.c                    0x00000000   Number         0  bignum.o ABSOLUTE
    ..\Algorithm\ecdsa.c                     0x00000000   Number         0  ecdsa.o ABSOLUTE
    ..\Algorithm\getaddress.c                0x00000000   Number         0  getaddress.o ABSOLUTE
    ..\Algorithm\ripemd160.c                 0x00000000   Number         0  ripemd160.o ABSOLUTE
    ..\Algorithm\showsign.c                  0x00000000   Number         0  showsign.o ABSOLUTE
    ..\Algorithm\stmflash.c                  0x00000000   Number         0  stmflash.o ABSOLUTE
    ..\Crypto_Sources_Files\crypto.c         0x00000000   Number         0  crypto.o ABSOLUTE
    ..\Drivers\STM32F4xx_HAL_Driver\Src\stm32f4xx_hal.c 0x00000000   Number         0  stm32f4xx_hal.o ABSOLUTE
    ..\Drivers\STM32F4xx_HAL_Driver\Src\stm32f4xx_hal_cortex.c 0x00000000   Number         0  stm32f4xx_hal_cortex.o ABSOLUTE
    ..\Drivers\STM32F4xx_HAL_Driver\Src\stm32f4xx_hal_crc.c 0x00000000   Number         0  stm32f4xx_hal_crc.o ABSOLUTE
    ..\Drivers\STM32F4xx_HAL_Driver\Src\stm32f4xx_hal_dma.c 0x00000000   Number         0  stm32f4xx_hal_dma.o ABSOLUTE
    ..\Drivers\STM32F4xx_HAL_Driver\Src\stm32f4xx_hal_dma_ex.c 0x00000000   Number         0  stm32f4xx_hal_dma_ex.o ABSOLUTE
    ..\Drivers\STM32F4xx_HAL_Driver\Src\stm32f4xx_hal_flash.c 0x00000000   Number         0  stm32f4xx_hal_flash.o ABSOLUTE
    ..\Drivers\STM32F4xx_HAL_Driver\Src\stm32f4xx_hal_flash_ex.c 0x00000000   Number         0  stm32f4xx_hal_flash_ex.o ABSOLUTE
    ..\Drivers\STM32F4xx_HAL_Driver\Src\stm32f4xx_hal_flash_ramfunc.c 0x00000000   Number         0  stm32f4xx_hal_flash_ramfunc.o ABSOLUTE
    ..\Drivers\STM32F4xx_HAL_Driver\Src\stm32f4xx_hal_gpio.c 0x00000000   Number         0  stm32f4xx_hal_gpio.o ABSOLUTE
    ..\Drivers\STM32F4xx_HAL_Driver\Src\stm32f4xx_hal_pwr.c 0x00000000   Number         0  stm32f4xx_hal_pwr.o ABSOLUTE
    ..\Drivers\STM32F4xx_HAL_Driver\Src\stm32f4xx_hal_pwr_ex.c 0x00000000   Number         0  stm32f4xx_hal_pwr_ex.o ABSOLUTE
    ..\Drivers\STM32F4xx_HAL_Driver\Src\stm32f4xx_hal_rcc.c 0x00000000   Number         0  stm32f4xx_hal_rcc.o ABSOLUTE
    ..\Drivers\STM32F4xx_HAL_Driver\Src\stm32f4xx_hal_rcc_ex.c 0x00000000   Number         0  stm32f4xx_hal_rcc_ex.o ABSOLUTE
    ..\Drivers\STM32F4xx_HAL_Driver\Src\stm32f4xx_hal_rng.c 0x00000000   Number         0  stm32f4xx_hal_rng.o ABSOLUTE
    ..\Drivers\STM32F4xx_HAL_Driver\Src\stm32f4xx_hal_tim.c 0x00000000   Number         0  stm32f4xx_hal_tim.o ABSOLUTE
    ..\Drivers\STM32F4xx_HAL_Driver\Src\stm32f4xx_hal_tim_ex.c 0x00000000   Number         0  stm32f4xx_hal_tim_ex.o ABSOLUTE
    ..\FWLIB\src\stm32f4xx_rcc.c             0x00000000   Number         0  stm32f4xx_rcc.o ABSOLUTE
    ..\FWLIB\src\stm32f4xx_rng.c             0x00000000   Number         0  stm32f4xx_rng.o ABSOLUTE
    ..\Src\main.c                            0x00000000   Number         0  main.o ABSOLUTE
    ..\Src\stm32f4xx_hal_msp.c               0x00000000   Number         0  stm32f4xx_hal_msp.o ABSOLUTE
    ..\Src\stm32f4xx_it.c                    0x00000000   Number         0  stm32f4xx_it.o ABSOLUTE
    ..\Src\sys.c                             0x00000000   Number         0  sys.o ABSOLUTE
    ..\Src\system_stm32f4xx.c                0x00000000   Number         0  system_stm32f4xx.o ABSOLUTE
    ..\\Algorithm\\bignum.c                  0x00000000   Number         0  bignum.o ABSOLUTE
    ..\\Algorithm\\ecdsa.c                   0x00000000   Number         0  ecdsa.o ABSOLUTE
    ..\\Algorithm\\getaddress.c              0x00000000   Number         0  getaddress.o ABSOLUTE
    ..\\Algorithm\\ripemd160.c               0x00000000   Number         0  ripemd160.o ABSOLUTE
    ..\\Algorithm\\showsign.c                0x00000000   Number         0  showsign.o ABSOLUTE
    ..\\Algorithm\\stmflash.c                0x00000000   Number         0  stmflash.o ABSOLUTE
    ..\\Crypto_Sources_Files\\crypto.c       0x00000000   Number         0  crypto.o ABSOLUTE
    ..\\FWLIB\\src\\stm32f4xx_rcc.c          0x00000000   Number         0  stm32f4xx_rcc.o ABSOLUTE
    ..\\FWLIB\\src\\stm32f4xx_rng.c          0x00000000   Number         0  stm32f4xx_rng.o ABSOLUTE
    ..\\Src\\sys.c                           0x00000000   Number         0  sys.o ABSOLUTE
    cdcmple.s                                0x00000000   Number         0  cdcmple.o ABSOLUTE
    cdrcmple.s                               0x00000000   Number         0  cdrcmple.o ABSOLUTE
    dc.s                                     0x00000000   Number         0  dc.o ABSOLUTE
    handlers.s                               0x00000000   Number         0  handlers.o ABSOLUTE
    init.s                                   0x00000000   Number         0  init.o ABSOLUTE
    startup_stm32f407xx.s                    0x00000000   Number         0  startup_stm32f407xx.o ABSOLUTE
    RESET                                    0x08060000   Section      392  startup_stm32f407xx.o(RESET)
    .ARM.Collect$$$$00000000                 0x08060188   Section        0  entry.o(.ARM.Collect$$$$00000000)
    .ARM.Collect$$$$00000001                 0x08060188   Section        4  entry2.o(.ARM.Collect$$$$00000001)
    .ARM.Collect$$$$00000004                 0x0806018c   Section        4  entry5.o(.ARM.Collect$$$$00000004)
    .ARM.Collect$$$$00000008                 0x08060190   Section        0  entry7b.o(.ARM.Collect$$$$00000008)
    .ARM.Collect$$$$0000000A                 0x08060190   Section        0  entry8b.o(.ARM.Collect$$$$0000000A)
    .ARM.Collect$$$$0000000B                 0x08060190   Section        8  entry9a.o(.ARM.Collect$$$$0000000B)
    .ARM.Collect$$$$0000000D                 0x08060198   Section        0  entry10a.o(.ARM.Collect$$$$0000000D)
    .ARM.Collect$$$$0000000F                 0x08060198   Section        0  entry11a.o(.ARM.Collect$$$$0000000F)
    .ARM.Collect$$$$00002712                 0x08060198   Section        4  entry2.o(.ARM.Collect$$$$00002712)
    __lit__00000000                          0x08060198   Data           4  entry2.o(.ARM.Collect$$$$00002712)
    .emb_text                                0x0806019c   Section       16  sys.o(.emb_text)
    $v0                                      0x0806019c   Number         0  sys.o(.emb_text)
    .text                                    0x080601ac   Section       36  startup_stm32f407xx.o(.text)
    $v0                                      0x080601ac   Number         0  startup_stm32f407xx.o(.text)
    .text                                    0x080601d0   Section        0  uldiv.o(.text)
    .text                                    0x08060232   Section        0  memmovea.o(.text)
    .text                                    0x08060272   Section        0  memseta.o(.text)
    .text                                    0x08060296   Section        0  dadd.o(.text)
    .text                                    0x080603e4   Section        0  dmul.o(.text)
    .text                                    0x080604c8   Section        0  dflti.o(.text)
    .text                                    0x080604ea   Section        0  dfltl.o(.text)
    .text                                    0x08060512   Section        0  dfixl.o(.text)
    .text                                    0x0806055c   Section        0  dfixul.o(.text)
    .text                                    0x0806058c   Section        0  llshl.o(.text)
    .text                                    0x080605aa   Section        0  llushr.o(.text)
    .text                                    0x080605ca   Section        0  llsshr.o(.text)
    .text                                    0x080605ee   Section        0  depilogue.o(.text)
    .text                                    0x080605ee   Section        0  iusefp.o(.text)
    .text                                    0x080606a8   Section        0  ddiv.o(.text)
    .text                                    0x08060786   Section        0  dscalb.o(.text)
    .text                                    0x080607b4   Section       48  cdrcmple.o(.text)
    .text                                    0x080607e4   Section       36  init.o(.text)
    .text                                    0x08060808   Section        0  semi.o(.text)
    .text                                    0x08060808   Section        0  iusesemip.o(.text)
    .text                                    0x08060808   Section        0  dsqrt.o(.text)
    i.AES128_encrypt                         0x080608ac   Section        0  crypto.o(i.AES128_encrypt)
    i.AES128_keyschedule_enc                 0x08060bc0   Section        0  crypto.o(i.AES128_keyschedule_enc)
    i.AddBig                                 0x08060c34   Section        0  crypto.o(i.AddBig)
    i.Add_Moduli_Big                         0x08060d74   Section        0  crypto.o(i.Add_Moduli_Big)
    Add_Moduli_Big                           0x08060d75   Thumb Code   454  crypto.o(i.Add_Moduli_Big)
    i.Alg_ECDSASignData                      0x08060f3c   Section        0  ecdsa.o(i.Alg_ECDSASignData)
    i.Alg_GetPublicFromPrivate               0x08060fc4   Section        0  ecdsa.o(i.Alg_GetPublicFromPrivate)
    i.Alg_HashData                           0x08061000   Section        0  ecdsa.o(i.Alg_HashData)
    i.Alg_ShowSignData                       0x08061024   Section        0  showsign.o(i.Alg_ShowSignData)
    i.Ascii2Dec                              0x08062558   Section        0  showsign.o(i.Ascii2Dec)
    i.Base58_25Bytes                         0x08062628   Section        0  getaddress.o(i.Base58_25Bytes)
    i.Big_to_W8                              0x08062678   Section        0  crypto.o(i.Big_to_W8)
    i.Big_to_fixedW8                         0x0806272c   Section        0  crypto.o(i.Big_to_fixedW8)
    i.BusFault_Handler                       0x080627b8   Section        0  stm32f4xx_it.o(i.BusFault_Handler)
    i.CompareBig                             0x080627bc   Section        0  crypto.o(i.CompareBig)
    i.CopyBig                                0x08062864   Section        0  crypto.o(i.CopyBig)
    i.CountBits                              0x08062902   Section        0  crypto.o(i.CountBits)
    i.CountMoney                             0x08062934   Section        0  showsign.o(i.CountMoney)
    i.Crypto_DeInit                          0x080629d4   Section        0  crypto.o(i.Crypto_DeInit)
    i.DRBG_AES128_Block_cipher_df            0x080629dc   Section        0  crypto.o(i.DRBG_AES128_Block_cipher_df)
    DRBG_AES128_Block_cipher_df              0x080629dd   Thumb Code   378  crypto.o(i.DRBG_AES128_Block_cipher_df)
    i.DRBG_AES128_Update                     0x08062b5c   Section        0  crypto.o(i.DRBG_AES128_Update)
    DRBG_AES128_Update                       0x08062b5d   Thumb Code   134  crypto.o(i.DRBG_AES128_Update)
    i.DebugMon_Handler                       0x08062be2   Section        0  stm32f4xx_it.o(i.DebugMon_Handler)
    i.ECCGetPublickeyFromPrivateKey_OLD      0x08062be4   Section        0  ecdsa.o(i.ECCGetPublickeyFromPrivateKey_OLD)
    i.ECCSignGenerate                        0x08062d68   Section        0  ecdsa.o(i.ECCSignGenerate)
    i.ECCcopyPoint                           0x08062ea4   Section        0  crypto.o(i.ECCcopyPoint)
    i.ECCfreeEC                              0x08062f0a   Section        0  crypto.o(i.ECCfreeEC)
    i.ECCfreePoint                           0x08062f86   Section        0  crypto.o(i.ECCfreePoint)
    i.ECCfreePrivKey                         0x08062fc8   Section        0  crypto.o(i.ECCfreePrivKey)
    i.ECCgetPointCoordinate                  0x08062ff8   Section        0  crypto.o(i.ECCgetPointCoordinate)
    i.ECCinitEC                              0x080630b4   Section        0  crypto.o(i.ECCinitEC)
    i.ECCinitPoint                           0x0806326c   Section        0  crypto.o(i.ECCinitPoint)
    i.ECCinitPrivKey                         0x0806333c   Section        0  crypto.o(i.ECCinitPrivKey)
    i.ECCscalarMul                           0x080633ac   Section        0  crypto.o(i.ECCscalarMul)
    i.ECCsetPointGenerator                   0x08063498   Section        0  crypto.o(i.ECCsetPointGenerator)
    i.ECCsetPrivKeyValue                     0x08063518   Section        0  crypto.o(i.ECCsetPrivKeyValue)
    i.ECCvalidatePubKey                      0x0806353c   Section        0  crypto.o(i.ECCvalidatePubKey)
    i.ECDSAfreeSign                          0x0806379c   Section        0  crypto.o(i.ECDSAfreeSign)
    i.ECDSAgetSignature                      0x080637d4   Section        0  crypto.o(i.ECDSAgetSignature)
    i.ECDSAinitSign                          0x08063878   Section        0  crypto.o(i.ECDSAinitSign)
    i.ECDSAsign                              0x080638f4   Section        0  crypto.o(i.ECDSAsign)
    i.EC_ParaInit                            0x08063ef0   Section        0  ecdsa.o(i.EC_ParaInit)
    i.FLASH_Program_Byte                     0x08063f50   Section        0  stm32f4xx_hal_flash.o(i.FLASH_Program_Byte)
    FLASH_Program_Byte                       0x08063f51   Thumb Code    32  stm32f4xx_hal_flash.o(i.FLASH_Program_Byte)
    i.FLASH_Program_DoubleWord               0x08063f74   Section        0  stm32f4xx_hal_flash.o(i.FLASH_Program_DoubleWord)
    FLASH_Program_DoubleWord                 0x08063f75   Thumb Code    40  stm32f4xx_hal_flash.o(i.FLASH_Program_DoubleWord)
    i.FLASH_Program_HalfWord                 0x08063fa0   Section        0  stm32f4xx_hal_flash.o(i.FLASH_Program_HalfWord)
    FLASH_Program_HalfWord                   0x08063fa1   Thumb Code    36  stm32f4xx_hal_flash.o(i.FLASH_Program_HalfWord)
    i.FLASH_Program_Word                     0x08063fc8   Section        0  stm32f4xx_hal_flash.o(i.FLASH_Program_Word)
    FLASH_Program_Word                       0x08063fc9   Thumb Code    36  stm32f4xx_hal_flash.o(i.FLASH_Program_Word)
    i.FLASH_SetErrorCode                     0x08063ff0   Section        0  stm32f4xx_hal_flash.o(i.FLASH_SetErrorCode)
    FLASH_SetErrorCode                       0x08063ff1   Thumb Code   142  stm32f4xx_hal_flash.o(i.FLASH_SetErrorCode)
    i.FLASH_WaitForLastOperation             0x08064088   Section        0  stm32f4xx_hal_flash.o(i.FLASH_WaitForLastOperation)
    i.FastDiv2                               0x080640ec   Section        0  crypto.o(i.FastDiv2)
    i.GetAssetID                             0x08064150   Section        0  showsign.o(i.GetAssetID)
    GetAssetID                               0x08064151   Thumb Code    96  showsign.o(i.GetAssetID)
    i.HAL_CRC_Init                           0x080641f0   Section        0  stm32f4xx_hal_crc.o(i.HAL_CRC_Init)
    i.HAL_CRC_MspInit                        0x08064214   Section        0  stm32f4xx_hal_msp.o(i.HAL_CRC_MspInit)
    i.HAL_DeInit                             0x08064248   Section        0  stm32f4xx_hal.o(i.HAL_DeInit)
    i.HAL_FLASH_Lock                         0x0806428c   Section        0  stm32f4xx_hal_flash.o(i.HAL_FLASH_Lock)
    i.HAL_FLASH_Program                      0x080642a0   Section        0  stm32f4xx_hal_flash.o(i.HAL_FLASH_Program)
    i.HAL_FLASH_Unlock                       0x08064338   Section        0  stm32f4xx_hal_flash.o(i.HAL_FLASH_Unlock)
    i.HAL_GetTick                            0x0806436c   Section        0  stm32f4xx_hal.o(i.HAL_GetTick)
    i.HAL_IncTick                            0x08064378   Section        0  stm32f4xx_hal.o(i.HAL_IncTick)
    i.HAL_Init                               0x08064388   Section        0  stm32f4xx_hal.o(i.HAL_Init)
    i.HAL_InitTick                           0x080643c4   Section        0  stm32f4xx_hal.o(i.HAL_InitTick)
    i.HAL_MspDeInit                          0x080643ec   Section        0  stm32f4xx_hal.o(i.HAL_MspDeInit)
    i.HAL_MspInit                            0x080643ee   Section        0  stm32f4xx_hal_msp.o(i.HAL_MspInit)
    i.HAL_NVIC_DisableIRQ                    0x08064444   Section        0  stm32f4xx_hal_cortex.o(i.HAL_NVIC_DisableIRQ)
    i.HAL_NVIC_SetPriority                   0x08064460   Section        0  stm32f4xx_hal_cortex.o(i.HAL_NVIC_SetPriority)
    i.HAL_NVIC_SetPriorityGrouping           0x080644dc   Section        0  stm32f4xx_hal_cortex.o(i.HAL_NVIC_SetPriorityGrouping)
    i.HAL_RCC_ClockConfig                    0x08064504   Section        0  stm32f4xx_hal_rcc.o(i.HAL_RCC_ClockConfig)
    i.HAL_RCC_GetHCLKFreq                    0x08064684   Section        0  stm32f4xx_hal_rcc.o(i.HAL_RCC_GetHCLKFreq)
    i.HAL_RCC_GetSysClockFreq                0x08064690   Section        0  stm32f4xx_hal_rcc.o(i.HAL_RCC_GetSysClockFreq)
    i.HAL_RCC_OscConfig                      0x08064740   Section        0  stm32f4xx_hal_rcc.o(i.HAL_RCC_OscConfig)
    i.HAL_RNG_Init                           0x08064b50   Section        0  stm32f4xx_hal_rng.o(i.HAL_RNG_Init)
    i.HAL_RNG_MspInit                        0x08064b80   Section        0  stm32f4xx_hal_msp.o(i.HAL_RNG_MspInit)
    i.HAL_SYSTICK_CLKSourceConfig            0x08064bb4   Section        0  stm32f4xx_hal_cortex.o(i.HAL_SYSTICK_CLKSourceConfig)
    i.HAL_SYSTICK_Callback                   0x08064bdc   Section        0  stm32f4xx_hal_cortex.o(i.HAL_SYSTICK_Callback)
    i.HAL_SYSTICK_Config                     0x08064bde   Section        0  stm32f4xx_hal_cortex.o(i.HAL_SYSTICK_Config)
    i.HAL_SYSTICK_IRQHandler                 0x08064c12   Section        0  stm32f4xx_hal_cortex.o(i.HAL_SYSTICK_IRQHandler)
    i.HASH_DigestCompute                     0x08064c1a   Section        0  ecdsa.o(i.HASH_DigestCompute)
    HASH_DigestCompute                       0x08064c1b   Thumb Code    84  ecdsa.o(i.HASH_DigestCompute)
    i.HardFault_Handler                      0x08064c6e   Section        0  stm32f4xx_it.o(i.HardFault_Handler)
    i.HexToString                            0x08064c72   Section        0  showsign.o(i.HexToString)
    i.InitBig                                0x08064cd8   Section        0  crypto.o(i.InitBig)
    i.LeftShift                              0x08064d40   Section        0  crypto.o(i.LeftShift)
    i.MX_CRC_Init                            0x08064dd0   Section        0  main.o(i.MX_CRC_Init)
    MX_CRC_Init                              0x08064dd1   Thumb Code    26  main.o(i.MX_CRC_Init)
    i.MX_GPIO_Init                           0x08064e04   Section        0  main.o(i.MX_GPIO_Init)
    MX_GPIO_Init                             0x08064e05   Thumb Code    96  main.o(i.MX_GPIO_Init)
    i.MX_RNG_Init                            0x08064e68   Section        0  main.o(i.MX_RNG_Init)
    MX_RNG_Init                              0x08064e69   Thumb Code    26  main.o(i.MX_RNG_Init)
    i.MemManage_Handler                      0x08064e9c   Section        0  stm32f4xx_it.o(i.MemManage_Handler)
    i.ModularAddBig                          0x08064ea0   Section        0  crypto.o(i.ModularAddBig)
    i.ModularFastMul2                        0x08064ee4   Section        0  crypto.o(i.ModularFastMul2)
    i.ModularInvBig                          0x08064f6e   Section        0  crypto.o(i.ModularInvBig)
    i.MontyExit                              0x0806518a   Section        0  crypto.o(i.MontyExit)
    i.MontyInit                              0x080651e4   Section        0  crypto.o(i.MontyInit)
    i.MontyJacProjAddPoints                  0x0806554e   Section        0  crypto.o(i.MontyJacProjAddPoints)
    i.MontyJacProjDoublePoint                0x080658cc   Section        0  crypto.o(i.MontyJacProjDoublePoint)
    i.MontyKillAll                           0x08065bd6   Section        0  crypto.o(i.MontyKillAll)
    i.MontyMul                               0x08065c08   Section        0  crypto.o(i.MontyMul)
    i.NAF_Binary_PointMul                    0x08065e14   Section        0  crypto.o(i.NAF_Binary_PointMul)
    i.NMI_Handler                            0x08066158   Section        0  stm32f4xx_it.o(i.NMI_Handler)
    i.NVIC_GetPriorityGrouping               0x0806615c   Section        0  stm32f4xx_hal_cortex.o(i.NVIC_GetPriorityGrouping)
    NVIC_GetPriorityGrouping                 0x0806615d   Thumb Code    10  stm32f4xx_hal_cortex.o(i.NVIC_GetPriorityGrouping)
    i.NVIC_SetPriority                       0x0806616c   Section        0  stm32f4xx_hal_cortex.o(i.NVIC_SetPriority)
    NVIC_SetPriority                         0x0806616d   Thumb Code    32  stm32f4xx_hal_cortex.o(i.NVIC_SetPriority)
    i.Normalize                              0x08066194   Section        0  crypto.o(i.Normalize)
    i.PendSV_Handler                         0x08066304   Section        0  stm32f4xx_it.o(i.PendSV_Handler)
    i.RCC_AHB1PeriphClockCmd                 0x08066308   Section        0  stm32f4xx_rcc.o(i.RCC_AHB1PeriphClockCmd)
    i.RCC_AHB2PeriphClockCmd                 0x08066328   Section        0  stm32f4xx_rcc.o(i.RCC_AHB2PeriphClockCmd)
    i.RCC_AHB2PeriphResetCmd                 0x08066348   Section        0  stm32f4xx_rcc.o(i.RCC_AHB2PeriphResetCmd)
    i.RNG_Cmd                                0x08066368   Section        0  stm32f4xx_rng.o(i.RNG_Cmd)
    i.RNG_DeInit                             0x0806638c   Section        0  stm32f4xx_rng.o(i.RNG_DeInit)
    i.RNG_init_for_sign                      0x080663a0   Section        0  ecdsa.o(i.RNG_init_for_sign)
    RNG_init_for_sign                        0x080663a1   Thumb Code    72  ecdsa.o(i.RNG_init_for_sign)
    i.RNGfree                                0x0806640c   Section        0  crypto.o(i.RNGfree)
    i.RNGgenBytes                            0x08066454   Section        0  crypto.o(i.RNGgenBytes)
    i.RNGinit                                0x08066628   Section        0  crypto.o(i.RNGinit)
    i.ReadByteLength                         0x08066730   Section        0  showsign.o(i.ReadByteLength)
    i.ReadByteLengthIndex                    0x08067268   Section        0  showsign.o(i.ReadByteLengthIndex)
    i.SHA256Final                            0x08067288   Section        0  crypto.o(i.SHA256Final)
    i.SHA256Transform                        0x08067410   Section        0  crypto.o(i.SHA256Transform)
    SHA256Transform                          0x08067411   Thumb Code   588  crypto.o(i.SHA256Transform)
    i.SHA256Update                           0x08067668   Section        0  crypto.o(i.SHA256Update)
    i.SHA256_Append                          0x08067702   Section        0  crypto.o(i.SHA256_Append)
    i.SHA256_Finish                          0x0806772c   Section        0  crypto.o(i.SHA256_Finish)
    i.SHA256_Init                            0x080677bc   Section        0  crypto.o(i.SHA256_Init)
    i.STMFLASH_Read                          0x08067818   Section        0  stmflash.o(i.STMFLASH_Read)
    i.STMFLASH_ReadWord                      0x08067838   Section        0  stmflash.o(i.STMFLASH_ReadWord)
    i.STMFLASH_WriteByte                     0x0806783e   Section        0  stmflash.o(i.STMFLASH_WriteByte)
    i.STMFLASH_WriteWord                     0x0806785a   Section        0  stmflash.o(i.STMFLASH_WriteWord)
    i.STMFLASH_Write_ByteArray               0x08067878   Section        0  stmflash.o(i.STMFLASH_Write_ByteArray)
    i.SVC_Handler                            0x080678cc   Section        0  stm32f4xx_it.o(i.SVC_Handler)
    i.SetZeroBig                             0x080678ce   Section        0  crypto.o(i.SetZeroBig)
    i.StAllocBig                             0x08067914   Section        0  crypto.o(i.StAllocBig)
    i.StFreeBig                              0x08067956   Section        0  crypto.o(i.StFreeBig)
    i.SubBig                                 0x0806797a   Section        0  crypto.o(i.SubBig)
    i.Sub_Moduli_Big                         0x08067a64   Section        0  crypto.o(i.Sub_Moduli_Big)
    i.SysTick_Handler                        0x08067c18   Section        0  stm32f4xx_it.o(i.SysTick_Handler)
    i.SystemClock_Config                     0x08067c24   Section        0  main.o(i.SystemClock_Config)
    i.SystemInit                             0x08067d04   Section        0  system_stm32f4xx.o(i.SystemInit)
    i.UsageFault_Handler                     0x08067d68   Section        0  stm32f4xx_it.o(i.UsageFault_Handler)
    i.W8_to_Big                              0x08067d6c   Section        0  crypto.o(i.W8_to_Big)
    i._Error_Handler                         0x08067eb2   Section        0  main.o(i._Error_Handler)
    i.__0printf$5                            0x08067eb8   Section        0  printf5.o(i.__0printf$5)
    i.__ARM_fpclassify                       0x08067ed8   Section        0  fpclassify.o(i.__ARM_fpclassify)
    i.__hardfp_pow                           0x08067f08   Section        0  pow.o(i.__hardfp_pow)
    i.__kernel_poly                          0x08068b40   Section        0  poly.o(i.__kernel_poly)
    i.__mathlib_dbl_divzero                  0x08068c38   Section        0  dunder.o(i.__mathlib_dbl_divzero)
    i.__mathlib_dbl_infnan2                  0x08068c68   Section        0  dunder.o(i.__mathlib_dbl_infnan2)
    i.__mathlib_dbl_invalid                  0x08068c80   Section        0  dunder.o(i.__mathlib_dbl_invalid)
    i.__mathlib_dbl_overflow                 0x08068ca0   Section        0  dunder.o(i.__mathlib_dbl_overflow)
    i.__mathlib_dbl_underflow                0x08068cc0   Section        0  dunder.o(i.__mathlib_dbl_underflow)
    i.__scatterload_copy                     0x08068ce0   Section       14  handlers.o(i.__scatterload_copy)
    i.__scatterload_null                     0x08068cee   Section        2  handlers.o(i.__scatterload_null)
    i.__scatterload_zeroinit                 0x08068cf0   Section       14  handlers.o(i.__scatterload_zeroinit)
    i.__set_errno                            0x08068d00   Section        0  errno.o(i.__set_errno)
    i._printf_core                           0x08068d0c   Section        0  printf5.o(i._printf_core)
    _printf_core                             0x08068d0d   Thumb Code   658  printf5.o(i._printf_core)
    i.crl_DRBG_AES128_Generate               0x08068fcc   Section        0  crypto.o(i.crl_DRBG_AES128_Generate)
    i.fabs                                   0x0806918e   Section        0  fabs.o(i.fabs)
    i.fputc                                  0x080691a6   Section        0  fputc.o(i.fputc)
    i.jump_to_app                            0x080691b8   Section        0  main.o(i.jump_to_app)
    i.main                                   0x080691f0   Section        0  main.o(i.main)
    i.sqrt                                   0x08069498   Section        0  sqrt.o(i.sqrt)
    .constdata                               0x08069508   Section      291  ecdsa.o(.constdata)
    .constdata                               0x0806962c   Section      516  showsign.o(.constdata)
    .constdata                               0x08069830   Section       24  system_stm32f4xx.o(.constdata)
    .constdata                               0x08069848   Section     6040  crypto.o(.constdata)
    table_reduction8                         0x0806a270   Data         512  crypto.o(.constdata)
    table_reduction4                         0x0806a470   Data          32  crypto.o(.constdata)
    pad                                      0x0806ae00   Data          64  crypto.o(.constdata)
    .constdata                               0x0806afe0   Section      136  pow.o(.constdata)
    bp                                       0x0806afe0   Data          16  pow.o(.constdata)
    dp_h                                     0x0806aff0   Data          16  pow.o(.constdata)
    dp_l                                     0x0806b000   Data          16  pow.o(.constdata)
    L                                        0x0806b010   Data          48  pow.o(.constdata)
    P                                        0x0806b040   Data          40  pow.o(.constdata)
    .constdata                               0x0806b068   Section        8  qnan.o(.constdata)
    .data                                    0x20000000   Section        4  system_stm32f4xx.o(.data)
    .data                                    0x20000004   Section       16  main.o(.data)
    .data                                    0x20000014   Section        4  stm32f4xx_hal.o(.data)
    .data                                    0x20000018   Section        4  stdout.o(.data)
    .data                                    0x2000001c   Section        4  errno.o(.data)
    _errno                                   0x2000001c   Data           4  errno.o(.data)
    .bss                                     0x20000020   Section     4112  ecdsa.o(.bss)
    .bss                                     0x20001030   Section      556  main.o(.bss)
    .bss                                     0x2000125c   Section       32  stm32f4xx_hal_flash.o(.bss)
    STACK                                    0x20001280   Section     8192  startup_stm32f407xx.o(STACK)

    Global Symbols

    Symbol Name                              Value     Ov Type        Size  Object(Section)

    BuildAttributes$$THM_ISAv4$E$P$D$K$B$S$7EM$VFPi3$EXTD16$VFPS$VFMA$PE$A:L22UL41UL21$X:L11$S22US41US21$IEEE1$IW$USESV6$~STKCKD$USESV7$~SHL$OTIME$ROPI$IEEEX$EBA8$MICROLIB$REQ8$PRES8$EABIv2 0x00000000   Number         0  anon$$obj.o ABSOLUTE
    __ARM_use_no_argv                        0x00000000   Number         0  main.o ABSOLUTE
    _printf_a                                0x00000000   Number         0  stubs.o ABSOLUTE
    _printf_c                                0x00000000   Number         0  stubs.o ABSOLUTE
    _printf_charcount                        0x00000000   Number         0  stubs.o ABSOLUTE
    _printf_d                                0x00000000   Number         0  stubs.o ABSOLUTE
    _printf_e                                0x00000000   Number         0  stubs.o ABSOLUTE
    _printf_f                                0x00000000   Number         0  stubs.o ABSOLUTE
    _printf_flags                            0x00000000   Number         0  stubs.o ABSOLUTE
    _printf_fp_dec                           0x00000000   Number         0  stubs.o ABSOLUTE
    _printf_fp_hex                           0x00000000   Number         0  stubs.o ABSOLUTE
    _printf_g                                0x00000000   Number         0  stubs.o ABSOLUTE
    _printf_i                                0x00000000   Number         0  stubs.o ABSOLUTE
    _printf_int_dec                          0x00000000   Number         0  stubs.o ABSOLUTE
    _printf_l                                0x00000000   Number         0  stubs.o ABSOLUTE
    _printf_lc                               0x00000000   Number         0  stubs.o ABSOLUTE
    _printf_ll                               0x00000000   Number         0  stubs.o ABSOLUTE
    _printf_lld                              0x00000000   Number         0  stubs.o ABSOLUTE
    _printf_lli                              0x00000000   Number         0  stubs.o ABSOLUTE
    _printf_llo                              0x00000000   Number         0  stubs.o ABSOLUTE
    _printf_llu                              0x00000000   Number         0  stubs.o ABSOLUTE
    _printf_llx                              0x00000000   Number         0  stubs.o ABSOLUTE
    _printf_longlong_dec                     0x00000000   Number         0  stubs.o ABSOLUTE
    _printf_longlong_hex                     0x00000000   Number         0  stubs.o ABSOLUTE
    _printf_longlong_oct                     0x00000000   Number         0  stubs.o ABSOLUTE
    _printf_ls                               0x00000000   Number         0  stubs.o ABSOLUTE
    _printf_mbtowc                           0x00000000   Number         0  stubs.o ABSOLUTE
    _printf_n                                0x00000000   Number         0  stubs.o ABSOLUTE
    _printf_o                                0x00000000   Number         0  stubs.o ABSOLUTE
    _printf_p                                0x00000000   Number         0  stubs.o ABSOLUTE
    _printf_percent                          0x00000000   Number         0  stubs.o ABSOLUTE
    _printf_pre_padding                      0x00000000   Number         0  stubs.o ABSOLUTE
    _printf_return_value                     0x00000000   Number         0  stubs.o ABSOLUTE
    _printf_s                                0x00000000   Number         0  stubs.o ABSOLUTE
    _printf_sizespec                         0x00000000   Number         0  stubs.o ABSOLUTE
    _printf_str                              0x00000000   Number         0  stubs.o ABSOLUTE
    _printf_truncate_signed                  0x00000000   Number         0  stubs.o ABSOLUTE
    _printf_truncate_unsigned                0x00000000   Number         0  stubs.o ABSOLUTE
    _printf_u                                0x00000000   Number         0  stubs.o ABSOLUTE
    _printf_wc                               0x00000000   Number         0  stubs.o ABSOLUTE
    _printf_wctomb                           0x00000000   Number         0  stubs.o ABSOLUTE
    _printf_widthprec                        0x00000000   Number         0  stubs.o ABSOLUTE
    _printf_x                                0x00000000   Number         0  stubs.o ABSOLUTE
    __cpp_initialize__aeabi_                  - Undefined Weak Reference
    __cxa_finalize                            - Undefined Weak Reference
    __decompress                              - Undefined Weak Reference
    _clock_init                               - Undefined Weak Reference
    _microlib_exit                            - Undefined Weak Reference
    __Vectors_Size                           0x00000188   Number         0  startup_stm32f407xx.o ABSOLUTE
    __Vectors                                0x08060000   Data           4  startup_stm32f407xx.o(RESET)
    __Vectors_End                            0x08060188   Data           0  startup_stm32f407xx.o(RESET)
    __main                                   0x08060189   Thumb Code     0  entry.o(.ARM.Collect$$$$00000000)
    _main_stk                                0x08060189   Thumb Code     0  entry2.o(.ARM.Collect$$$$00000001)
    _main_scatterload                        0x0806018d   Thumb Code     0  entry5.o(.ARM.Collect$$$$00000004)
    __main_after_scatterload                 0x08060191   Thumb Code     0  entry5.o(.ARM.Collect$$$$00000004)
    _main_clock                              0x08060191   Thumb Code     0  entry7b.o(.ARM.Collect$$$$00000008)
    _main_cpp_init                           0x08060191   Thumb Code     0  entry8b.o(.ARM.Collect$$$$0000000A)
    _main_init                               0x08060191   Thumb Code     0  entry9a.o(.ARM.Collect$$$$0000000B)
    __rt_final_cpp                           0x08060199   Thumb Code     0  entry10a.o(.ARM.Collect$$$$0000000D)
    __rt_final_exit                          0x08060199   Thumb Code     0  entry11a.o(.ARM.Collect$$$$0000000F)
    WFI_SET                                  0x0806019d   Thumb Code     2  sys.o(.emb_text)
    INTX_DISABLE                             0x0806019f   Thumb Code     4  sys.o(.emb_text)
    INTX_ENABLE                              0x080601a3   Thumb Code     4  sys.o(.emb_text)
    MSR_MSP                                  0x080601a7   Thumb Code     6  sys.o(.emb_text)
    Reset_Handler                            0x080601ad   Thumb Code     8  startup_stm32f407xx.o(.text)
    ADC_IRQHandler                           0x080601c7   Thumb Code     0  startup_stm32f407xx.o(.text)
    CAN1_RX0_IRQHandler                      0x080601c7   Thumb Code     0  startup_stm32f407xx.o(.text)
    CAN1_RX1_IRQHandler                      0x080601c7   Thumb Code     0  startup_stm32f407xx.o(.text)
    CAN1_SCE_IRQHandler                      0x080601c7   Thumb Code     0  startup_stm32f407xx.o(.text)
    CAN1_TX_IRQHandler                       0x080601c7   Thumb Code     0  startup_stm32f407xx.o(.text)
    CAN2_RX0_IRQHandler                      0x080601c7   Thumb Code     0  startup_stm32f407xx.o(.text)
    CAN2_RX1_IRQHandler                      0x080601c7   Thumb Code     0  startup_stm32f407xx.o(.text)
    CAN2_SCE_IRQHandler                      0x080601c7   Thumb Code     0  startup_stm32f407xx.o(.text)
    CAN2_TX_IRQHandler                       0x080601c7   Thumb Code     0  startup_stm32f407xx.o(.text)
    DCMI_IRQHandler                          0x080601c7   Thumb Code     0  startup_stm32f407xx.o(.text)
    DMA1_Stream0_IRQHandler                  0x080601c7   Thumb Code     0  startup_stm32f407xx.o(.text)
    DMA1_Stream1_IRQHandler                  0x080601c7   Thumb Code     0  startup_stm32f407xx.o(.text)
    DMA1_Stream2_IRQHandler                  0x080601c7   Thumb Code     0  startup_stm32f407xx.o(.text)
    DMA1_Stream3_IRQHandler                  0x080601c7   Thumb Code     0  startup_stm32f407xx.o(.text)
    DMA1_Stream4_IRQHandler                  0x080601c7   Thumb Code     0  startup_stm32f407xx.o(.text)
    DMA1_Stream5_IRQHandler                  0x080601c7   Thumb Code     0  startup_stm32f407xx.o(.text)
    DMA1_Stream6_IRQHandler                  0x080601c7   Thumb Code     0  startup_stm32f407xx.o(.text)
    DMA1_Stream7_IRQHandler                  0x080601c7   Thumb Code     0  startup_stm32f407xx.o(.text)
    DMA2_Stream0_IRQHandler                  0x080601c7   Thumb Code     0  startup_stm32f407xx.o(.text)
    DMA2_Stream1_IRQHandler                  0x080601c7   Thumb Code     0  startup_stm32f407xx.o(.text)
    DMA2_Stream2_IRQHandler                  0x080601c7   Thumb Code     0  startup_stm32f407xx.o(.text)
    DMA2_Stream3_IRQHandler                  0x080601c7   Thumb Code     0  startup_stm32f407xx.o(.text)
    DMA2_Stream4_IRQHandler                  0x080601c7   Thumb Code     0  startup_stm32f407xx.o(.text)
    DMA2_Stream5_IRQHandler                  0x080601c7   Thumb Code     0  startup_stm32f407xx.o(.text)
    DMA2_Stream6_IRQHandler                  0x080601c7   Thumb Code     0  startup_stm32f407xx.o(.text)
    DMA2_Stream7_IRQHandler                  0x080601c7   Thumb Code     0  startup_stm32f407xx.o(.text)
    ETH_IRQHandler                           0x080601c7   Thumb Code     0  startup_stm32f407xx.o(.text)
    ETH_WKUP_IRQHandler                      0x080601c7   Thumb Code     0  startup_stm32f407xx.o(.text)
    EXTI0_IRQHandler                         0x080601c7   Thumb Code     0  startup_stm32f407xx.o(.text)
    EXTI15_10_IRQHandler                     0x080601c7   Thumb Code     0  startup_stm32f407xx.o(.text)
    EXTI1_IRQHandler                         0x080601c7   Thumb Code     0  startup_stm32f407xx.o(.text)
    EXTI2_IRQHandler                         0x080601c7   Thumb Code     0  startup_stm32f407xx.o(.text)
    EXTI3_IRQHandler                         0x080601c7   Thumb Code     0  startup_stm32f407xx.o(.text)
    EXTI4_IRQHandler                         0x080601c7   Thumb Code     0  startup_stm32f407xx.o(.text)
    EXTI9_5_IRQHandler                       0x080601c7   Thumb Code     0  startup_stm32f407xx.o(.text)
    FLASH_IRQHandler                         0x080601c7   Thumb Code     0  startup_stm32f407xx.o(.text)
    FMC_IRQHandler                           0x080601c7   Thumb Code     0  startup_stm32f407xx.o(.text)
    FPU_IRQHandler                           0x080601c7   Thumb Code     0  startup_stm32f407xx.o(.text)
    HASH_RNG_IRQHandler                      0x080601c7   Thumb Code     0  startup_stm32f407xx.o(.text)
    I2C1_ER_IRQHandler                       0x080601c7   Thumb Code     0  startup_stm32f407xx.o(.text)
    I2C1_EV_IRQHandler                       0x080601c7   Thumb Code     0  startup_stm32f407xx.o(.text)
    I2C2_ER_IRQHandler                       0x080601c7   Thumb Code     0  startup_stm32f407xx.o(.text)
    I2C2_EV_IRQHandler                       0x080601c7   Thumb Code     0  startup_stm32f407xx.o(.text)
    I2C3_ER_IRQHandler                       0x080601c7   Thumb Code     0  startup_stm32f407xx.o(.text)
    I2C3_EV_IRQHandler                       0x080601c7   Thumb Code     0  startup_stm32f407xx.o(.text)
    OTG_FS_IRQHandler                        0x080601c7   Thumb Code     0  startup_stm32f407xx.o(.text)
    OTG_FS_WKUP_IRQHandler                   0x080601c7   Thumb Code     0  startup_stm32f407xx.o(.text)
    OTG_HS_EP1_IN_IRQHandler                 0x080601c7   Thumb Code     0  startup_stm32f407xx.o(.text)
    OTG_HS_EP1_OUT_IRQHandler                0x080601c7   Thumb Code     0  startup_stm32f407xx.o(.text)
    OTG_HS_IRQHandler                        0x080601c7   Thumb Code     0  startup_stm32f407xx.o(.text)
    OTG_HS_WKUP_IRQHandler                   0x080601c7   Thumb Code     0  startup_stm32f407xx.o(.text)
    PVD_IRQHandler                           0x080601c7   Thumb Code     0  startup_stm32f407xx.o(.text)
    RCC_IRQHandler                           0x080601c7   Thumb Code     0  startup_stm32f407xx.o(.text)
    RTC_Alarm_IRQHandler                     0x080601c7   Thumb Code     0  startup_stm32f407xx.o(.text)
    RTC_WKUP_IRQHandler                      0x080601c7   Thumb Code     0  startup_stm32f407xx.o(.text)
    SDIO_IRQHandler                          0x080601c7   Thumb Code     0  startup_stm32f407xx.o(.text)
    SPI1_IRQHandler                          0x080601c7   Thumb Code     0  startup_stm32f407xx.o(.text)
    SPI2_IRQHandler                          0x080601c7   Thumb Code     0  startup_stm32f407xx.o(.text)
    SPI3_IRQHandler                          0x080601c7   Thumb Code     0  startup_stm32f407xx.o(.text)
    TAMP_STAMP_IRQHandler                    0x080601c7   Thumb Code     0  startup_stm32f407xx.o(.text)
    TIM1_BRK_TIM9_IRQHandler                 0x080601c7   Thumb Code     0  startup_stm32f407xx.o(.text)
    TIM1_CC_IRQHandler                       0x080601c7   Thumb Code     0  startup_stm32f407xx.o(.text)
    TIM1_TRG_COM_TIM11_IRQHandler            0x080601c7   Thumb Code     0  startup_stm32f407xx.o(.text)
    TIM1_UP_TIM10_IRQHandler                 0x080601c7   Thumb Code     0  startup_stm32f407xx.o(.text)
    TIM2_IRQHandler                          0x080601c7   Thumb Code     0  startup_stm32f407xx.o(.text)
    TIM3_IRQHandler                          0x080601c7   Thumb Code     0  startup_stm32f407xx.o(.text)
    TIM4_IRQHandler                          0x080601c7   Thumb Code     0  startup_stm32f407xx.o(.text)
    TIM5_IRQHandler                          0x080601c7   Thumb Code     0  startup_stm32f407xx.o(.text)
    TIM6_DAC_IRQHandler                      0x080601c7   Thumb Code     0  startup_stm32f407xx.o(.text)
    TIM7_IRQHandler                          0x080601c7   Thumb Code     0  startup_stm32f407xx.o(.text)
    TIM8_BRK_TIM12_IRQHandler                0x080601c7   Thumb Code     0  startup_stm32f407xx.o(.text)
    TIM8_CC_IRQHandler                       0x080601c7   Thumb Code     0  startup_stm32f407xx.o(.text)
    TIM8_TRG_COM_TIM14_IRQHandler            0x080601c7   Thumb Code     0  startup_stm32f407xx.o(.text)
    TIM8_UP_TIM13_IRQHandler                 0x080601c7   Thumb Code     0  startup_stm32f407xx.o(.text)
    UART4_IRQHandler                         0x080601c7   Thumb Code     0  startup_stm32f407xx.o(.text)
    UART5_IRQHandler                         0x080601c7   Thumb Code     0  startup_stm32f407xx.o(.text)
    USART1_IRQHandler                        0x080601c7   Thumb Code     0  startup_stm32f407xx.o(.text)
    USART2_IRQHandler                        0x080601c7   Thumb Code     0  startup_stm32f407xx.o(.text)
    USART3_IRQHandler                        0x080601c7   Thumb Code     0  startup_stm32f407xx.o(.text)
    USART6_IRQHandler                        0x080601c7   Thumb Code     0  startup_stm32f407xx.o(.text)
    WWDG_IRQHandler                          0x080601c7   Thumb Code     0  startup_stm32f407xx.o(.text)
    __aeabi_uldivmod                         0x080601d1   Thumb Code    98  uldiv.o(.text)
    ___aeabi_memcpy8$move                    0x08060233   Thumb Code     0  memmovea.o(.text)
    __aeabi_memcpy                           0x08060233   Thumb Code    64  memmovea.o(.text)
    __aeabi_memcpy4                          0x08060233   Thumb Code     0  memmovea.o(.text)
    __aeabi_memmove                          0x08060233   Thumb Code     0  memmovea.o(.text)
    __aeabi_memmove4                         0x08060233   Thumb Code     0  memmovea.o(.text)
    __aeabi_memmove8                         0x08060233   Thumb Code     0  memmovea.o(.text)
    __aeabi_memset                           0x08060273   Thumb Code    14  memseta.o(.text)
    __aeabi_memset4                          0x08060273   Thumb Code     0  memseta.o(.text)
    __aeabi_memset8                          0x08060273   Thumb Code     0  memseta.o(.text)
    __aeabi_memclr                           0x08060281   Thumb Code     4  memseta.o(.text)
    __aeabi_memclr4                          0x08060281   Thumb Code     0  memseta.o(.text)
    __aeabi_memclr8                          0x08060281   Thumb Code     0  memseta.o(.text)
    _memset$wrapper                          0x08060285   Thumb Code    18  memseta.o(.text)
    __aeabi_dadd                             0x08060297   Thumb Code   322  dadd.o(.text)
    __aeabi_dsub                             0x080603d9   Thumb Code     6  dadd.o(.text)
    __aeabi_drsub                            0x080603df   Thumb Code     6  dadd.o(.text)
    __aeabi_dmul                             0x080603e5   Thumb Code   228  dmul.o(.text)
    __aeabi_i2d                              0x080604c9   Thumb Code    34  dflti.o(.text)
    __aeabi_l2d                              0x080604eb   Thumb Code    40  dfltl.o(.text)
    __aeabi_d2lz                             0x08060513   Thumb Code    74  dfixl.o(.text)
    __aeabi_d2ulz                            0x0806055d   Thumb Code    48  dfixul.o(.text)
    __aeabi_llsl                             0x0806058d   Thumb Code    30  llshl.o(.text)
    _ll_shift_l                              0x0806058d   Thumb Code     0  llshl.o(.text)
    __aeabi_llsr                             0x080605ab   Thumb Code    32  llushr.o(.text)
    _ll_ushift_r                             0x080605ab   Thumb Code     0  llushr.o(.text)
    __aeabi_lasr                             0x080605cb   Thumb Code    36  llsshr.o(.text)
    _ll_sshift_r                             0x080605cb   Thumb Code     0  llsshr.o(.text)
    __I$use$fp                               0x080605ef   Thumb Code     0  iusefp.o(.text)
    _double_round                            0x080605ef   Thumb Code    30  depilogue.o(.text)
    _double_epilogue                         0x0806060d   Thumb Code   156  depilogue.o(.text)
    __aeabi_ddiv                             0x080606a9   Thumb Code   222  ddiv.o(.text)
    __ARM_scalbn                             0x08060787   Thumb Code    46  dscalb.o(.text)
    scalbn                                   0x08060787   Thumb Code     0  dscalb.o(.text)
    __aeabi_cdrcmple                         0x080607b5   Thumb Code    48  cdrcmple.o(.text)
    __scatterload                            0x080607e5   Thumb Code    28  init.o(.text)
    __scatterload_rt2                        0x080607e5   Thumb Code     0  init.o(.text)
    __I$use$semihosting$fputc                0x08060809   Thumb Code     0  iusesemip.o(.text)
    __semihosting_library_function           0x08060809   Thumb Code     0  semi.o(.text)
    _dsqrt                                   0x08060809   Thumb Code   162  dsqrt.o(.text)
    AES128_encrypt                           0x080608ad   Thumb Code   776  crypto.o(i.AES128_encrypt)
    AES128_keyschedule_enc                   0x08060bc1   Thumb Code   112  crypto.o(i.AES128_keyschedule_enc)
    AddBig                                   0x08060c35   Thumb Code   318  crypto.o(i.AddBig)
    Alg_ECDSASignData                        0x08060f3d   Thumb Code   126  ecdsa.o(i.Alg_ECDSASignData)
    Alg_GetPublicFromPrivate                 0x08060fc5   Thumb Code    60  ecdsa.o(i.Alg_GetPublicFromPrivate)
    Alg_HashData                             0x08061001   Thumb Code    36  ecdsa.o(i.Alg_HashData)
    Alg_ShowSignData                         0x08061025   Thumb Code  5404  showsign.o(i.Alg_ShowSignData)
    Ascii2Dec                                0x08062559   Thumb Code   184  showsign.o(i.Ascii2Dec)
    Base58_25Bytes                           0x08062629   Thumb Code    80  getaddress.o(i.Base58_25Bytes)
    Big_to_W8                                0x08062679   Thumb Code   180  crypto.o(i.Big_to_W8)
    Big_to_fixedW8                           0x0806272d   Thumb Code   140  crypto.o(i.Big_to_fixedW8)
    BusFault_Handler                         0x080627b9   Thumb Code     4  stm32f4xx_it.o(i.BusFault_Handler)
    CompareBig                               0x080627bd   Thumb Code   166  crypto.o(i.CompareBig)
    CopyBig                                  0x08062865   Thumb Code   158  crypto.o(i.CopyBig)
    CountBits                                0x08062903   Thumb Code    48  crypto.o(i.CountBits)
    CountMoney                               0x08062935   Thumb Code   150  showsign.o(i.CountMoney)
    Crypto_DeInit                            0x080629d5   Thumb Code     8  crypto.o(i.Crypto_DeInit)
    DebugMon_Handler                         0x08062be3   Thumb Code     2  stm32f4xx_it.o(i.DebugMon_Handler)
    ECCGetPublickeyFromPrivateKey_OLD        0x08062be5   Thumb Code   350  ecdsa.o(i.ECCGetPublickeyFromPrivateKey_OLD)
    ECCSignGenerate                          0x08062d69   Thumb Code   310  ecdsa.o(i.ECCSignGenerate)
    ECCcopyPoint                             0x08062ea5   Thumb Code   102  crypto.o(i.ECCcopyPoint)
    ECCfreeEC                                0x08062f0b   Thumb Code   124  crypto.o(i.ECCfreeEC)
    ECCfreePoint                             0x08062f87   Thumb Code    66  crypto.o(i.ECCfreePoint)
    ECCfreePrivKey                           0x08062fc9   Thumb Code    46  crypto.o(i.ECCfreePrivKey)
    ECCgetPointCoordinate                    0x08062ff9   Thumb Code   182  crypto.o(i.ECCgetPointCoordinate)
    ECCinitEC                                0x080630b5   Thumb Code   440  crypto.o(i.ECCinitEC)
    ECCinitPoint                             0x0806326d   Thumb Code   208  crypto.o(i.ECCinitPoint)
    ECCinitPrivKey                           0x0806333d   Thumb Code   110  crypto.o(i.ECCinitPrivKey)
    ECCscalarMul                             0x080633ad   Thumb Code   230  crypto.o(i.ECCscalarMul)
    ECCsetPointGenerator                     0x08063499   Thumb Code   122  crypto.o(i.ECCsetPointGenerator)
    ECCsetPrivKeyValue                       0x08063519   Thumb Code    36  crypto.o(i.ECCsetPrivKeyValue)
    ECCvalidatePubKey                        0x0806353d   Thumb Code   602  crypto.o(i.ECCvalidatePubKey)
    ECDSAfreeSign                            0x0806379d   Thumb Code    56  crypto.o(i.ECDSAfreeSign)
    ECDSAgetSignature                        0x080637d5   Thumb Code   160  crypto.o(i.ECDSAgetSignature)
    ECDSAinitSign                            0x08063879   Thumb Code   124  crypto.o(i.ECDSAinitSign)
    ECDSAsign                                0x080638f5   Thumb Code  1530  crypto.o(i.ECDSAsign)
    EC_ParaInit                              0x08063ef1   Thumb Code    56  ecdsa.o(i.EC_ParaInit)
    FLASH_WaitForLastOperation               0x08064089   Thumb Code    90  stm32f4xx_hal_flash.o(i.FLASH_WaitForLastOperation)
    FastDiv2                                 0x080640ed   Thumb Code    98  crypto.o(i.FastDiv2)
    HAL_CRC_Init                             0x080641f1   Thumb Code    36  stm32f4xx_hal_crc.o(i.HAL_CRC_Init)
    HAL_CRC_MspInit                          0x08064215   Thumb Code    44  stm32f4xx_hal_msp.o(i.HAL_CRC_MspInit)
    HAL_DeInit                               0x08064249   Thumb Code    64  stm32f4xx_hal.o(i.HAL_DeInit)
    HAL_FLASH_Lock                           0x0806428d   Thumb Code    16  stm32f4xx_hal_flash.o(i.HAL_FLASH_Lock)
    HAL_FLASH_Program                        0x080642a1   Thumb Code   142  stm32f4xx_hal_flash.o(i.HAL_FLASH_Program)
    HAL_FLASH_Unlock                         0x08064339   Thumb Code    38  stm32f4xx_hal_flash.o(i.HAL_FLASH_Unlock)
    HAL_GetTick                              0x0806436d   Thumb Code     6  stm32f4xx_hal.o(i.HAL_GetTick)
    HAL_IncTick                              0x08064379   Thumb Code    12  stm32f4xx_hal.o(i.HAL_IncTick)
    HAL_Init                                 0x08064389   Thumb Code    54  stm32f4xx_hal.o(i.HAL_Init)
    HAL_InitTick                             0x080643c5   Thumb Code    36  stm32f4xx_hal.o(i.HAL_InitTick)
    HAL_MspDeInit                            0x080643ed   Thumb Code     2  stm32f4xx_hal.o(i.HAL_MspDeInit)
    HAL_MspInit                              0x080643ef   Thumb Code    86  stm32f4xx_hal_msp.o(i.HAL_MspInit)
    HAL_NVIC_DisableIRQ                      0x08064445   Thumb Code    22  stm32f4xx_hal_cortex.o(i.HAL_NVIC_DisableIRQ)
    HAL_NVIC_SetPriority                     0x08064461   Thumb Code   124  stm32f4xx_hal_cortex.o(i.HAL_NVIC_SetPriority)
    HAL_NVIC_SetPriorityGrouping             0x080644dd   Thumb Code    32  stm32f4xx_hal_cortex.o(i.HAL_NVIC_SetPriorityGrouping)
    HAL_RCC_ClockConfig                      0x08064505   Thumb Code   366  stm32f4xx_hal_rcc.o(i.HAL_RCC_ClockConfig)
    HAL_RCC_GetHCLKFreq                      0x08064685   Thumb Code     6  stm32f4xx_hal_rcc.o(i.HAL_RCC_GetHCLKFreq)
    HAL_RCC_GetSysClockFreq                  0x08064691   Thumb Code   162  stm32f4xx_hal_rcc.o(i.HAL_RCC_GetSysClockFreq)
    HAL_RCC_OscConfig                        0x08064741   Thumb Code  1040  stm32f4xx_hal_rcc.o(i.HAL_RCC_OscConfig)
    HAL_RNG_Init                             0x08064b51   Thumb Code    48  stm32f4xx_hal_rng.o(i.HAL_RNG_Init)
    HAL_RNG_MspInit                          0x08064b81   Thumb Code    44  stm32f4xx_hal_msp.o(i.HAL_RNG_MspInit)
    HAL_SYSTICK_CLKSourceConfig              0x08064bb5   Thumb Code    40  stm32f4xx_hal_cortex.o(i.HAL_SYSTICK_CLKSourceConfig)
    HAL_SYSTICK_Callback                     0x08064bdd   Thumb Code     2  stm32f4xx_hal_cortex.o(i.HAL_SYSTICK_Callback)
    HAL_SYSTICK_Config                       0x08064bdf   Thumb Code    52  stm32f4xx_hal_cortex.o(i.HAL_SYSTICK_Config)
    HAL_SYSTICK_IRQHandler                   0x08064c13   Thumb Code     8  stm32f4xx_hal_cortex.o(i.HAL_SYSTICK_IRQHandler)
    HardFault_Handler                        0x08064c6f   Thumb Code     4  stm32f4xx_it.o(i.HardFault_Handler)
    HexToString                              0x08064c73   Thumb Code   102  showsign.o(i.HexToString)
    InitBig                                  0x08064cd9   Thumb Code   104  crypto.o(i.InitBig)
    LeftShift                                0x08064d41   Thumb Code   144  crypto.o(i.LeftShift)
    MemManage_Handler                        0x08064e9d   Thumb Code     4  stm32f4xx_it.o(i.MemManage_Handler)
    ModularAddBig                            0x08064ea1   Thumb Code    68  crypto.o(i.ModularAddBig)
    ModularFastMul2                          0x08064ee5   Thumb Code   138  crypto.o(i.ModularFastMul2)
    ModularInvBig                            0x08064f6f   Thumb Code   540  crypto.o(i.ModularInvBig)
    MontyExit                                0x0806518b   Thumb Code    88  crypto.o(i.MontyExit)
    MontyInit                                0x080651e5   Thumb Code   874  crypto.o(i.MontyInit)
    MontyJacProjAddPoints                    0x0806554f   Thumb Code   894  crypto.o(i.MontyJacProjAddPoints)
    MontyJacProjDoublePoint                  0x080658cd   Thumb Code   778  crypto.o(i.MontyJacProjDoublePoint)
    MontyKillAll                             0x08065bd7   Thumb Code    48  crypto.o(i.MontyKillAll)
    MontyMul                                 0x08065c09   Thumb Code   524  crypto.o(i.MontyMul)
    NAF_Binary_PointMul                      0x08065e15   Thumb Code   832  crypto.o(i.NAF_Binary_PointMul)
    NMI_Handler                              0x08066159   Thumb Code     2  stm32f4xx_it.o(i.NMI_Handler)
    Normalize                                0x08066195   Thumb Code   368  crypto.o(i.Normalize)
    PendSV_Handler                           0x08066305   Thumb Code     2  stm32f4xx_it.o(i.PendSV_Handler)
    RCC_AHB1PeriphClockCmd                   0x08066309   Thumb Code    26  stm32f4xx_rcc.o(i.RCC_AHB1PeriphClockCmd)
    RCC_AHB2PeriphClockCmd                   0x08066329   Thumb Code    26  stm32f4xx_rcc.o(i.RCC_AHB2PeriphClockCmd)
    RCC_AHB2PeriphResetCmd                   0x08066349   Thumb Code    26  stm32f4xx_rcc.o(i.RCC_AHB2PeriphResetCmd)
    RNG_Cmd                                  0x08066369   Thumb Code    30  stm32f4xx_rng.o(i.RNG_Cmd)
    RNG_DeInit                               0x0806638d   Thumb Code    20  stm32f4xx_rng.o(i.RNG_DeInit)
    RNGfree                                  0x0806640d   Thumb Code    72  crypto.o(i.RNGfree)
    RNGgenBytes                              0x08066455   Thumb Code   464  crypto.o(i.RNGgenBytes)
    RNGinit                                  0x08066629   Thumb Code   260  crypto.o(i.RNGinit)
    ReadByteLength                           0x08066731   Thumb Code  2872  showsign.o(i.ReadByteLength)
    ReadByteLengthIndex                      0x08067269   Thumb Code    32  showsign.o(i.ReadByteLengthIndex)
    SHA256Final                              0x08067289   Thumb Code   390  crypto.o(i.SHA256Final)
    SHA256Update                             0x08067669   Thumb Code   154  crypto.o(i.SHA256Update)
    SHA256_Append                            0x08067703   Thumb Code    42  crypto.o(i.SHA256_Append)
    SHA256_Finish                            0x0806772d   Thumb Code   144  crypto.o(i.SHA256_Finish)
    SHA256_Init                              0x080677bd   Thumb Code    60  crypto.o(i.SHA256_Init)
    STMFLASH_Read                            0x08067819   Thumb Code    32  stmflash.o(i.STMFLASH_Read)
    STMFLASH_ReadWord                        0x08067839   Thumb Code     6  stmflash.o(i.STMFLASH_ReadWord)
    STMFLASH_WriteByte                       0x0806783f   Thumb Code    28  stmflash.o(i.STMFLASH_WriteByte)
    STMFLASH_WriteWord                       0x0806785b   Thumb Code    28  stmflash.o(i.STMFLASH_WriteWord)
    STMFLASH_Write_ByteArray                 0x08067879   Thumb Code    80  stmflash.o(i.STMFLASH_Write_ByteArray)
    SVC_Handler                              0x080678cd   Thumb Code     2  stm32f4xx_it.o(i.SVC_Handler)
    SetZeroBig                               0x080678cf   Thumb Code    70  crypto.o(i.SetZeroBig)
    StAllocBig                               0x08067915   Thumb Code    66  crypto.o(i.StAllocBig)
    StFreeBig                                0x08067957   Thumb Code    36  crypto.o(i.StFreeBig)
    SubBig                                   0x0806797b   Thumb Code   234  crypto.o(i.SubBig)
    Sub_Moduli_Big                           0x08067a65   Thumb Code   436  crypto.o(i.Sub_Moduli_Big)
    SysTick_Handler                          0x08067c19   Thumb Code    12  stm32f4xx_it.o(i.SysTick_Handler)
    SystemClock_Config                       0x08067c25   Thumb Code   198  main.o(i.SystemClock_Config)
    SystemInit                               0x08067d05   Thumb Code    82  system_stm32f4xx.o(i.SystemInit)
    UsageFault_Handler                       0x08067d69   Thumb Code     4  stm32f4xx_it.o(i.UsageFault_Handler)
    W8_to_Big                                0x08067d6d   Thumb Code   326  crypto.o(i.W8_to_Big)
    _Error_Handler                           0x08067eb3   Thumb Code     4  main.o(i._Error_Handler)
    __0printf$5                              0x08067eb9   Thumb Code    22  printf5.o(i.__0printf$5)
    __1printf$5                              0x08067eb9   Thumb Code     0  printf5.o(i.__0printf$5)
    __2printf                                0x08067eb9   Thumb Code     0  printf5.o(i.__0printf$5)
    __ARM_fpclassify                         0x08067ed9   Thumb Code    48  fpclassify.o(i.__ARM_fpclassify)
    __hardfp_pow                             0x08067f09   Thumb Code  3044  pow.o(i.__hardfp_pow)
    __kernel_poly                            0x08068b41   Thumb Code   248  poly.o(i.__kernel_poly)
    __mathlib_dbl_divzero                    0x08068c39   Thumb Code    28  dunder.o(i.__mathlib_dbl_divzero)
    __mathlib_dbl_infnan2                    0x08068c69   Thumb Code    20  dunder.o(i.__mathlib_dbl_infnan2)
    __mathlib_dbl_invalid                    0x08068c81   Thumb Code    24  dunder.o(i.__mathlib_dbl_invalid)
    __mathlib_dbl_overflow                   0x08068ca1   Thumb Code    24  dunder.o(i.__mathlib_dbl_overflow)
    __mathlib_dbl_underflow                  0x08068cc1   Thumb Code    24  dunder.o(i.__mathlib_dbl_underflow)
    __scatterload_copy                       0x08068ce1   Thumb Code    14  handlers.o(i.__scatterload_copy)
    __scatterload_null                       0x08068cef   Thumb Code     2  handlers.o(i.__scatterload_null)
    __scatterload_zeroinit                   0x08068cf1   Thumb Code    14  handlers.o(i.__scatterload_zeroinit)
    __set_errno                              0x08068d01   Thumb Code     6  errno.o(i.__set_errno)
    crl_DRBG_AES128_Generate                 0x08068fcd   Thumb Code   450  crypto.o(i.crl_DRBG_AES128_Generate)
    fabs                                     0x0806918f   Thumb Code    24  fabs.o(i.fabs)
    fputc                                    0x080691a7   Thumb Code    18  fputc.o(i.fputc)
    jump_to_app                              0x080691b9   Thumb Code    48  main.o(i.jump_to_app)
    main                                     0x080691f1   Thumb Code   640  main.o(i.main)
    sqrt                                     0x08069499   Thumb Code   110  sqrt.o(i.sqrt)
    P_256_a                                  0x08069508   Data          32  ecdsa.o(.constdata)
    P_256_b                                  0x08069528   Data          32  ecdsa.o(.constdata)
    P_256_p                                  0x08069548   Data          32  ecdsa.o(.constdata)
    P_256_n                                  0x08069568   Data          32  ecdsa.o(.constdata)
    P_256_Gx                                 0x08069588   Data          32  ecdsa.o(.constdata)
    P_256_Gy                                 0x080695a8   Data          32  ecdsa.o(.constdata)
    AHBPrescTable                            0x08069830   Data          16  system_stm32f4xx.o(.constdata)
    APBPrescTable                            0x08069840   Data           8  system_stm32f4xx.o(.constdata)
    Sbox                                     0x08069848   Data         256  crypto.o(.constdata)
    InvSbox                                  0x08069948   Data         256  crypto.o(.constdata)
    rcon                                     0x08069a48   Data          40  crypto.o(.constdata)
    enc_table                                0x08069a70   Data        1024  crypto.o(.constdata)
    dec_table                                0x08069e70   Data        1024  crypto.o(.constdata)
    SP1                                      0x0806a490   Data         256  crypto.o(.constdata)
    SP2                                      0x0806a590   Data         256  crypto.o(.constdata)
    SP3                                      0x0806a690   Data         256  crypto.o(.constdata)
    SP4                                      0x0806a790   Data         256  crypto.o(.constdata)
    SP5                                      0x0806a890   Data         256  crypto.o(.constdata)
    SP6                                      0x0806a990   Data         256  crypto.o(.constdata)
    SP7                                      0x0806aa90   Data         256  crypto.o(.constdata)
    SP8                                      0x0806ab90   Data         256  crypto.o(.constdata)
    K256                                     0x0806ac90   Data         256  crypto.o(.constdata)
    __mathlib_zero                           0x0806b068   Data           8  qnan.o(.constdata)
    Region$$Table$$Base                      0x0806b070   Number         0  anon$$obj.o(Region$$Table)
    Region$$Table$$Limit                     0x0806b090   Number         0  anon$$obj.o(Region$$Table)
    SystemCoreClock                          0x20000000   Data           4  system_stm32f4xx.o(.data)
    hcrc                                     0x20000004   Data           8  main.o(.data)
    pack_len                                 0x2000000c   Data           4  main.o(.data)
    jump2app                                 0x20000010   Data           4  main.o(.data)
    uwTick                                   0x20000014   Data           4  stm32f4xx_hal.o(.data)
    __stdout                                 0x20000018   Data           4  stdout.o(.data)
    pri_key_malloc                           0x20000020   Data         200  ecdsa.o(.bss)
    digest_malloc                            0x200000e8   Data         128  ecdsa.o(.bss)
    pub_x_malloc                             0x20000168   Data          50  ecdsa.o(.bss)
    pub_y_malloc                             0x2000019a   Data          50  ecdsa.o(.bss)
    sign_r_malloc                            0x200001cc   Data          50  ecdsa.o(.bss)
    sign_s_malloc                            0x200001fe   Data          50  ecdsa.o(.bss)
    preallocated_buffer                      0x20000230   Data        3584  ecdsa.o(.bss)
    hrng                                     0x20001030   Data          12  main.o(.bss)
    privateKey_flash                         0x2000103c   Data          32  main.o(.bss)
    data_pack                                0x2000105c   Data         512  main.o(.bss)
    pFlash                                   0x2000125c   Data          32  stm32f4xx_hal_flash.o(.bss)
    __initial_sp                             0x20003280   Data           0  startup_stm32f407xx.o(STACK)



==============================================================================

Memory Map of the image

  Image Entry point : 0x08060189

  Load Region LR_IROM1 (Base: 0x08060000, Size: 0x0000b0b0, Max: 0x000a0000, ABSOLUTE)

    Execution Region ER_IROM1 (Base: 0x08060000, Size: 0x0000b090, Max: 0x000a0000, ABSOLUTE)

    Base Addr    Size         Type   Attr      Idx    E Section Name        Object

    0x08060000   0x00000188   Data   RO            3    RESET               startup_stm32f407xx.o
    0x08060188   0x00000000   Code   RO         3237  * .ARM.Collect$$$$00000000  mc_w.l(entry.o)
    0x08060188   0x00000004   Code   RO         3624    .ARM.Collect$$$$00000001  mc_w.l(entry2.o)
    0x0806018c   0x00000004   Code   RO         3627    .ARM.Collect$$$$00000004  mc_w.l(entry5.o)
    0x08060190   0x00000000   Code   RO         3629    .ARM.Collect$$$$00000008  mc_w.l(entry7b.o)
    0x08060190   0x00000000   Code   RO         3631    .ARM.Collect$$$$0000000A  mc_w.l(entry8b.o)
    0x08060190   0x00000008   Code   RO         3632    .ARM.Collect$$$$0000000B  mc_w.l(entry9a.o)
    0x08060198   0x00000000   Code   RO         3634    .ARM.Collect$$$$0000000D  mc_w.l(entry10a.o)
    0x08060198   0x00000000   Code   RO         3636    .ARM.Collect$$$$0000000F  mc_w.l(entry11a.o)
    0x08060198   0x00000004   Code   RO         3625    .ARM.Collect$$$$00002712  mc_w.l(entry2.o)
    0x0806019c   0x00000010   Code   RO         1008    .emb_text           sys.o
    0x080601ac   0x00000024   Code   RO            4    .text               startup_stm32f407xx.o
    0x080601d0   0x00000062   Code   RO         3240    .text               mc_w.l(uldiv.o)
    0x08060232   0x00000040   Code   RO         3272    .text               mc_w.l(memmovea.o)
    0x08060272   0x00000024   Code   RO         3274    .text               mc_w.l(memseta.o)
    0x08060296   0x0000014e   Code   RO         3575    .text               mf_w.l(dadd.o)
    0x080603e4   0x000000e4   Code   RO         3577    .text               mf_w.l(dmul.o)
    0x080604c8   0x00000022   Code   RO         3579    .text               mf_w.l(dflti.o)
    0x080604ea   0x00000028   Code   RO         3581    .text               mf_w.l(dfltl.o)
    0x08060512   0x0000004a   Code   RO         3583    .text               mf_w.l(dfixl.o)
    0x0806055c   0x00000030   Code   RO         3585    .text               mf_w.l(dfixul.o)
    0x0806058c   0x0000001e   Code   RO         3643    .text               mc_w.l(llshl.o)
    0x080605aa   0x00000020   Code   RO         3645    .text               mc_w.l(llushr.o)
    0x080605ca   0x00000024   Code   RO         3647    .text               mc_w.l(llsshr.o)
    0x080605ee   0x00000000   Code   RO         3658    .text               mc_w.l(iusefp.o)
    0x080605ee   0x000000ba   Code   RO         3659    .text               mf_w.l(depilogue.o)
    0x080606a8   0x000000de   Code   RO         3661    .text               mf_w.l(ddiv.o)
    0x08060786   0x0000002e   Code   RO         3665    .text               mf_w.l(dscalb.o)
    0x080607b4   0x00000030   Code   RO         3667    .text               mf_w.l(cdrcmple.o)
    0x080607e4   0x00000024   Code   RO         3669    .text               mc_w.l(init.o)
    0x08060808   0x00000000   Code   RO         3671    .text               mc_w.l(semi.o)
    0x08060808   0x00000000   Code   RO         3672    .text               mc_w.l(iusesemip.o)
    0x08060808   0x000000a2   Code   RO         3673    .text               mf_w.l(dsqrt.o)
    0x080608aa   0x00000002   PAD
    0x080608ac   0x00000314   Code   RO         2287    i.AES128_encrypt    Sha256.lib(crypto.o)
    0x08060bc0   0x00000074   Code   RO         2289    i.AES128_keyschedule_enc  Sha256.lib(crypto.o)
    0x08060c34   0x0000013e   Code   RO         2351    i.AddBig            Sha256.lib(crypto.o)
    0x08060d72   0x00000002   PAD
    0x08060d74   0x000001c6   Code   RO         2352    i.Add_Moduli_Big    Sha256.lib(crypto.o)
    0x08060f3a   0x00000002   PAD
    0x08060f3c   0x00000088   Code   RO          155    i.Alg_ECDSASignData  ecdsa.o
    0x08060fc4   0x0000003c   Code   RO          156    i.Alg_GetPublicFromPrivate  ecdsa.o
    0x08061000   0x00000024   Code   RO          157    i.Alg_HashData      ecdsa.o
    0x08061024   0x00001534   Code   RO          541    i.Alg_ShowSignData  showsign.o
    0x08062558   0x000000d0   Code   RO          542    i.Ascii2Dec         showsign.o
    0x08062628   0x00000050   Code   RO          395    i.Base58_25Bytes    getaddress.o
    0x08062678   0x000000b4   Code   RO         2353    i.Big_to_W8         Sha256.lib(crypto.o)
    0x0806272c   0x0000008c   Code   RO         2354    i.Big_to_fixedW8    Sha256.lib(crypto.o)
    0x080627b8   0x00000004   Code   RO          824    i.BusFault_Handler  stm32f4xx_it.o
    0x080627bc   0x000000a6   Code   RO         2355    i.CompareBig        Sha256.lib(crypto.o)
    0x08062862   0x00000002   PAD
    0x08062864   0x0000009e   Code   RO         2356    i.CopyBig           Sha256.lib(crypto.o)
    0x08062902   0x00000030   Code   RO         2357    i.CountBits         Sha256.lib(crypto.o)
    0x08062932   0x00000002   PAD
    0x08062934   0x000000a0   Code   RO          544    i.CountMoney        showsign.o
    0x080629d4   0x00000008   Code   RO         2359    i.Crypto_DeInit     Sha256.lib(crypto.o)
    0x080629dc   0x00000180   Code   RO         2373    i.DRBG_AES128_Block_cipher_df  Sha256.lib(crypto.o)
    0x08062b5c   0x00000086   Code   RO         2374    i.DRBG_AES128_Update  Sha256.lib(crypto.o)
    0x08062be2   0x00000002   Code   RO          825    i.DebugMon_Handler  stm32f4xx_it.o
    0x08062be4   0x00000184   Code   RO          158    i.ECCGetPublickeyFromPrivateKey_OLD  ecdsa.o
    0x08062d68   0x0000013c   Code   RO          159    i.ECCSignGenerate   ecdsa.o
    0x08062ea4   0x00000066   Code   RO         2375    i.ECCcopyPoint      Sha256.lib(crypto.o)
    0x08062f0a   0x0000007c   Code   RO         2376    i.ECCfreeEC         Sha256.lib(crypto.o)
    0x08062f86   0x00000042   Code   RO         2377    i.ECCfreePoint      Sha256.lib(crypto.o)
    0x08062fc8   0x0000002e   Code   RO         2378    i.ECCfreePrivKey    Sha256.lib(crypto.o)
    0x08062ff6   0x00000002   PAD
    0x08062ff8   0x000000bc   Code   RO         2379    i.ECCgetPointCoordinate  Sha256.lib(crypto.o)
    0x080630b4   0x000001b8   Code   RO         2382    i.ECCinitEC         Sha256.lib(crypto.o)
    0x0806326c   0x000000d0   Code   RO         2383    i.ECCinitPoint      Sha256.lib(crypto.o)
    0x0806333c   0x0000006e   Code   RO         2384    i.ECCinitPrivKey    Sha256.lib(crypto.o)
    0x080633aa   0x00000002   PAD
    0x080633ac   0x000000ec   Code   RO         2388    i.ECCscalarMul      Sha256.lib(crypto.o)
    0x08063498   0x00000080   Code   RO         2391    i.ECCsetPointGenerator  Sha256.lib(crypto.o)
    0x08063518   0x00000024   Code   RO         2392    i.ECCsetPrivKeyValue  Sha256.lib(crypto.o)
    0x0806353c   0x00000260   Code   RO         2394    i.ECCvalidatePubKey  Sha256.lib(crypto.o)
    0x0806379c   0x00000038   Code   RO         2395    i.ECDSAfreeSign     Sha256.lib(crypto.o)
    0x080637d4   0x000000a4   Code   RO         2396    i.ECDSAgetSignature  Sha256.lib(crypto.o)
    0x08063878   0x0000007c   Code   RO         2397    i.ECDSAinitSign     Sha256.lib(crypto.o)
    0x080638f4   0x000005fa   Code   RO         2399    i.ECDSAsign         Sha256.lib(crypto.o)
    0x08063eee   0x00000002   PAD
    0x08063ef0   0x00000060   Code   RO          160    i.EC_ParaInit       ecdsa.o
    0x08063f50   0x00000024   Code   RO         1030    i.FLASH_Program_Byte  stm32f4xx_hal_flash.o
    0x08063f74   0x0000002c   Code   RO         1031    i.FLASH_Program_DoubleWord  stm32f4xx_hal_flash.o
    0x08063fa0   0x00000028   Code   RO         1032    i.FLASH_Program_HalfWord  stm32f4xx_hal_flash.o
    0x08063fc8   0x00000028   Code   RO         1033    i.FLASH_Program_Word  stm32f4xx_hal_flash.o
    0x08063ff0   0x00000098   Code   RO         1034    i.FLASH_SetErrorCode  stm32f4xx_hal_flash.o
    0x08064088   0x00000064   Code   RO         1035    i.FLASH_WaitForLastOperation  stm32f4xx_hal_flash.o
    0x080640ec   0x00000062   Code   RO         2402    i.FastDiv2          Sha256.lib(crypto.o)
    0x0806414e   0x00000002   PAD
    0x08064150   0x000000a0   Code   RO          548    i.GetAssetID        showsign.o
    0x080641f0   0x00000024   Code   RO         2024    i.HAL_CRC_Init      stm32f4xx_hal_crc.o
    0x08064214   0x00000034   Code   RO          961    i.HAL_CRC_MspInit   stm32f4xx_hal_msp.o
    0x08064248   0x00000044   Code   RO         2140    i.HAL_DeInit        stm32f4xx_hal.o
    0x0806428c   0x00000014   Code   RO         1039    i.HAL_FLASH_Lock    stm32f4xx_hal_flash.o
    0x080642a0   0x00000098   Code   RO         1044    i.HAL_FLASH_Program  stm32f4xx_hal_flash.o
    0x08064338   0x00000034   Code   RO         1046    i.HAL_FLASH_Unlock  stm32f4xx_hal_flash.o
    0x0806436c   0x0000000c   Code   RO         2147    i.HAL_GetTick       stm32f4xx_hal.o
    0x08064378   0x00000010   Code   RO         2149    i.HAL_IncTick       stm32f4xx_hal.o
    0x08064388   0x0000003c   Code   RO         2150    i.HAL_Init          stm32f4xx_hal.o
    0x080643c4   0x00000028   Code   RO         2151    i.HAL_InitTick      stm32f4xx_hal.o
    0x080643ec   0x00000002   Code   RO         2152    i.HAL_MspDeInit     stm32f4xx_hal.o
    0x080643ee   0x00000056   Code   RO          962    i.HAL_MspInit       stm32f4xx_hal_msp.o
    0x08064444   0x0000001c   Code   RO         1752    i.HAL_NVIC_DisableIRQ  stm32f4xx_hal_cortex.o
    0x08064460   0x0000007c   Code   RO         1759    i.HAL_NVIC_SetPriority  stm32f4xx_hal_cortex.o
    0x080644dc   0x00000028   Code   RO         1760    i.HAL_NVIC_SetPriorityGrouping  stm32f4xx_hal_cortex.o
    0x08064504   0x00000180   Code   RO         1401    i.HAL_RCC_ClockConfig  stm32f4xx_hal_rcc.o
    0x08064684   0x0000000c   Code   RO         1406    i.HAL_RCC_GetHCLKFreq  stm32f4xx_hal_rcc.o
    0x08064690   0x000000b0   Code   RO         1410    i.HAL_RCC_GetSysClockFreq  stm32f4xx_hal_rcc.o
    0x08064740   0x00000410   Code   RO         1413    i.HAL_RCC_OscConfig  stm32f4xx_hal_rcc.o
    0x08064b50   0x00000030   Code   RO         1896    i.HAL_RNG_Init      stm32f4xx_hal_rng.o
    0x08064b80   0x00000034   Code   RO          964    i.HAL_RNG_MspInit   stm32f4xx_hal_msp.o
    0x08064bb4   0x00000028   Code   RO         1762    i.HAL_SYSTICK_CLKSourceConfig  stm32f4xx_hal_cortex.o
    0x08064bdc   0x00000002   Code   RO         1763    i.HAL_SYSTICK_Callback  stm32f4xx_hal_cortex.o
    0x08064bde   0x00000034   Code   RO         1764    i.HAL_SYSTICK_Config  stm32f4xx_hal_cortex.o
    0x08064c12   0x00000008   Code   RO         1765    i.HAL_SYSTICK_IRQHandler  stm32f4xx_hal_cortex.o
    0x08064c1a   0x00000054   Code   RO          161    i.HASH_DigestCompute  ecdsa.o
    0x08064c6e   0x00000004   Code   RO          826    i.HardFault_Handler  stm32f4xx_it.o
    0x08064c72   0x00000066   Code   RO          551    i.HexToString       showsign.o
    0x08064cd8   0x00000068   Code   RO         2421    i.InitBig           Sha256.lib(crypto.o)
    0x08064d40   0x00000090   Code   RO         2423    i.LeftShift         Sha256.lib(crypto.o)
    0x08064dd0   0x00000034   Code   RO          899    i.MX_CRC_Init       main.o
    0x08064e04   0x00000064   Code   RO          900    i.MX_GPIO_Init      main.o
    0x08064e68   0x00000034   Code   RO          901    i.MX_RNG_Init       main.o
    0x08064e9c   0x00000004   Code   RO          827    i.MemManage_Handler  stm32f4xx_it.o
    0x08064ea0   0x00000044   Code   RO         2427    i.ModularAddBig     Sha256.lib(crypto.o)
    0x08064ee4   0x0000008a   Code   RO         2429    i.ModularFastMul2   Sha256.lib(crypto.o)
    0x08064f6e   0x0000021c   Code   RO         2430    i.ModularInvBig     Sha256.lib(crypto.o)
    0x0806518a   0x00000058   Code   RO         2432    i.MontyExit         Sha256.lib(crypto.o)
    0x080651e2   0x00000002   PAD
    0x080651e4   0x0000036a   Code   RO         2433    i.MontyInit         Sha256.lib(crypto.o)
    0x0806554e   0x0000037e   Code   RO         2434    i.MontyJacProjAddPoints  Sha256.lib(crypto.o)
    0x080658cc   0x0000030a   Code   RO         2435    i.MontyJacProjDoublePoint  Sha256.lib(crypto.o)
    0x08065bd6   0x00000030   Code   RO         2436    i.MontyKillAll      Sha256.lib(crypto.o)
    0x08065c06   0x00000002   PAD
    0x08065c08   0x0000020c   Code   RO         2438    i.MontyMul          Sha256.lib(crypto.o)
    0x08065e14   0x00000344   Code   RO         2440    i.NAF_Binary_PointMul  Sha256.lib(crypto.o)
    0x08066158   0x00000002   Code   RO          828    i.NMI_Handler       stm32f4xx_it.o
    0x0806615a   0x00000002   PAD
    0x0806615c   0x00000010   Code   RO         1766    i.NVIC_GetPriorityGrouping  stm32f4xx_hal_cortex.o
    0x0806616c   0x00000028   Code   RO         1767    i.NVIC_SetPriority  stm32f4xx_hal_cortex.o
    0x08066194   0x00000170   Code   RO         2441    i.Normalize         Sha256.lib(crypto.o)
    0x08066304   0x00000002   Code   RO          829    i.PendSV_Handler    stm32f4xx_it.o
    0x08066306   0x00000002   PAD
    0x08066308   0x00000020   Code   RO         2725    i.RCC_AHB1PeriphClockCmd  Sha256.lib(stm32f4xx_rcc.o)
    0x08066328   0x00000020   Code   RO         2728    i.RCC_AHB2PeriphClockCmd  Sha256.lib(stm32f4xx_rcc.o)
    0x08066348   0x00000020   Code   RO         2730    i.RCC_AHB2PeriphResetCmd  Sha256.lib(stm32f4xx_rcc.o)
    0x08066368   0x00000024   Code   RO         3165    i.RNG_Cmd           Sha256.lib(stm32f4xx_rng.o)
    0x0806638c   0x00000014   Code   RO         3166    i.RNG_DeInit        Sha256.lib(stm32f4xx_rng.o)
    0x080663a0   0x0000006c   Code   RO          162    i.RNG_init_for_sign  ecdsa.o
    0x0806640c   0x00000048   Code   RO         2442    i.RNGfree           Sha256.lib(crypto.o)
    0x08066454   0x000001d4   Code   RO         2443    i.RNGgenBytes       Sha256.lib(crypto.o)
    0x08066628   0x00000108   Code   RO         2445    i.RNGinit           Sha256.lib(crypto.o)
    0x08066730   0x00000b38   Code   RO          552    i.ReadByteLength    showsign.o
    0x08067268   0x00000020   Code   RO          553    i.ReadByteLengthIndex  showsign.o
    0x08067288   0x00000186   Code   RO         2464    i.SHA256Final       Sha256.lib(crypto.o)
    0x0806740e   0x00000002   PAD
    0x08067410   0x00000258   Code   RO         2466    i.SHA256Transform   Sha256.lib(crypto.o)
    0x08067668   0x0000009a   Code   RO         2467    i.SHA256Update      Sha256.lib(crypto.o)
    0x08067702   0x0000002a   Code   RO         2468    i.SHA256_Append     Sha256.lib(crypto.o)
    0x0806772c   0x00000090   Code   RO         2469    i.SHA256_Finish     Sha256.lib(crypto.o)
    0x080677bc   0x0000005c   Code   RO         2470    i.SHA256_Init       Sha256.lib(crypto.o)
    0x08067818   0x00000020   Code   RO          693    i.STMFLASH_Read     stmflash.o
    0x08067838   0x00000006   Code   RO          696    i.STMFLASH_ReadWord  stmflash.o
    0x0806783e   0x0000001c   Code   RO          699    i.STMFLASH_WriteByte  stmflash.o
    0x0806785a   0x0000001c   Code   RO          701    i.STMFLASH_WriteWord  stmflash.o
    0x08067876   0x00000002   PAD
    0x08067878   0x00000054   Code   RO          702    i.STMFLASH_Write_ByteArray  stmflash.o
    0x080678cc   0x00000002   Code   RO          830    i.SVC_Handler       stm32f4xx_it.o
    0x080678ce   0x00000046   Code   RO         2471    i.SetZeroBig        Sha256.lib(crypto.o)
    0x08067914   0x00000042   Code   RO         2473    i.StAllocBig        Sha256.lib(crypto.o)
    0x08067956   0x00000024   Code   RO         2474    i.StFreeBig         Sha256.lib(crypto.o)
    0x0806797a   0x000000ea   Code   RO         2475    i.SubBig            Sha256.lib(crypto.o)
    0x08067a64   0x000001b4   Code   RO         2476    i.Sub_Moduli_Big    Sha256.lib(crypto.o)
    0x08067c18   0x0000000c   Code   RO          831    i.SysTick_Handler   stm32f4xx_it.o
    0x08067c24   0x000000e0   Code   RO          902    i.SystemClock_Config  main.o
    0x08067d04   0x00000064   Code   RO          788    i.SystemInit        system_stm32f4xx.o
    0x08067d68   0x00000004   Code   RO          832    i.UsageFault_Handler  stm32f4xx_it.o
    0x08067d6c   0x00000146   Code   RO         2491    i.W8_to_Big         Sha256.lib(crypto.o)
    0x08067eb2   0x00000004   Code   RO          903    i._Error_Handler    main.o
    0x08067eb6   0x00000002   PAD
    0x08067eb8   0x00000020   Code   RO         3419    i.__0printf$5       mc_w.l(printf5.o)
    0x08067ed8   0x00000030   Code   RO         3607    i.__ARM_fpclassify  m_wm.l(fpclassify.o)
    0x08067f08   0x00000c38   Code   RO         3223    i.__hardfp_pow      m_wm.l(pow.o)
    0x08068b40   0x000000f8   Code   RO         3609    i.__kernel_poly     m_wm.l(poly.o)
    0x08068c38   0x00000030   Code   RO         3587    i.__mathlib_dbl_divzero  m_wm.l(dunder.o)
    0x08068c68   0x00000014   Code   RO         3589    i.__mathlib_dbl_infnan2  m_wm.l(dunder.o)
    0x08068c7c   0x00000004   PAD
    0x08068c80   0x00000020   Code   RO         3590    i.__mathlib_dbl_invalid  m_wm.l(dunder.o)
    0x08068ca0   0x00000020   Code   RO         3591    i.__mathlib_dbl_overflow  m_wm.l(dunder.o)
    0x08068cc0   0x00000020   Code   RO         3593    i.__mathlib_dbl_underflow  m_wm.l(dunder.o)
    0x08068ce0   0x0000000e   Code   RO         3679    i.__scatterload_copy  mc_w.l(handlers.o)
    0x08068cee   0x00000002   Code   RO         3680    i.__scatterload_null  mc_w.l(handlers.o)
    0x08068cf0   0x0000000e   Code   RO         3681    i.__scatterload_zeroinit  mc_w.l(handlers.o)
    0x08068cfe   0x00000002   PAD
    0x08068d00   0x0000000c   Code   RO         3653    i.__set_errno       mc_w.l(errno.o)
    0x08068d0c   0x000002c0   Code   RO         3426    i._printf_core      mc_w.l(printf5.o)
    0x08068fcc   0x000001c2   Code   RO         2492    i.crl_DRBG_AES128_Generate  Sha256.lib(crypto.o)
    0x0806918e   0x00000018   Code   RO         3603    i.fabs              m_wm.l(fabs.o)
    0x080691a6   0x00000012   Code   RO         3638    i.fputc             mc_w.l(fputc.o)
    0x080691b8   0x00000038   Code   RO          904    i.jump_to_app       main.o
    0x080691f0   0x000002a8   Code   RO          905    i.main              main.o
    0x08069498   0x0000006e   Code   RO         3614    i.sqrt              m_wm.l(sqrt.o)
    0x08069506   0x00000002   PAD
    0x08069508   0x00000123   Data   RO          167    .constdata          ecdsa.o
    0x0806962b   0x00000001   PAD
    0x0806962c   0x00000204   Data   RO          562    .constdata          showsign.o
    0x08069830   0x00000018   Data   RO          789    .constdata          system_stm32f4xx.o
    0x08069848   0x00001798   Data   RO         2503    .constdata          Sha256.lib(crypto.o)
    0x0806afe0   0x00000088   Data   RO         3226    .constdata          m_wm.l(pow.o)
    0x0806b068   0x00000008   Data   RO         3611    .constdata          m_wm.l(qnan.o)
    0x0806b070   0x00000020   Data   RO         3677    Region$$Table       anon$$obj.o


    Execution Region RW_IRAM1 (Base: 0x20000000, Size: 0x00003280, Max: 0x00020000, ABSOLUTE)

    Base Addr    Size         Type   Attr      Idx    E Section Name        Object

    0x20000000   0x00000004   Data   RW          790    .data               system_stm32f4xx.o
    0x20000004   0x00000010   Data   RW          907    .data               main.o
    0x20000014   0x00000004   Data   RW         2156    .data               stm32f4xx_hal.o
    0x20000018   0x00000004   Data   RW         3640    .data               mc_w.l(stdout.o)
    0x2000001c   0x00000004   Data   RW         3654    .data               mc_w.l(errno.o)
    0x20000020   0x00001010   Zero   RW          166    .bss                ecdsa.o
    0x20001030   0x0000022c   Zero   RW          906    .bss                main.o
    0x2000125c   0x00000020   Zero   RW         1047    .bss                stm32f4xx_hal_flash.o
    0x2000127c   0x00000004   PAD
    0x20001280   0x00002000   Zero   RW            1    STACK               startup_stm32f407xx.o


==============================================================================

Image component sizes


      Code (inc. data)   RO Data    RW Data    ZI Data      Debug   Object Name

         0          0          0          0          0     626060   bignum.o
      1224        130        291          0       4112      14353   ecdsa.o
        80          0          0          0          0       2177   getaddress.o
      1168        130          0         16        556       5148   main.o
      8962        560        516          0          0       7121   showsign.o
        36          8        392          0       8192        832   startup_stm32f407xx.o
       198         24          0          4          0       4904   stm32f4xx_hal.o
       350         28          0          0          0      32594   stm32f4xx_hal_cortex.o
        36          0          0          0          0       1031   stm32f4xx_hal_crc.o
       636         64          0          0         32       5942   stm32f4xx_hal_flash.o
       190         16          0          0          0       1982   stm32f4xx_hal_msp.o
      1612         54          0          0          0       4250   stm32f4xx_hal_rcc.o
        48          0          0          0          0       1055   stm32f4xx_hal_rng.o
        36          0          0          0          0       4134   stm32f4xx_it.o
       178          4          0          0          0       3381   stmflash.o
        16          0          0          0          0        468   sys.o
       100         18         24          4          0       1155   system_stm32f4xx.o

    ----------------------------------------------------------------------
     14878       1036       1256         24      12896     716587   Object Totals
         0          0         32          0          0          0   (incl. Generated)
         8          0          1          0          4          0   (incl. Padding)

    ----------------------------------------------------------------------

      Code (inc. data)   RO Data    RW Data    ZI Data      Debug   Library Member Name

     16406        122       6040          0          0       7984   crypto.o
        96         18          0          0          0     231755   stm32f4xx_rcc.o
        56          6          0          0          0        871   stm32f4xx_rng.o
       164         44          0          0          0        620   dunder.o
        24          0          0          0          0        124   fabs.o
        48          0          0          0          0        124   fpclassify.o
       248          0          0          0          0        152   poly.o
      3128        302        136          0          0        356   pow.o
         0          0          8          0          0          0   qnan.o
       110          0          0          0          0        148   sqrt.o
         0          0          0          0          0          0   entry.o
         0          0          0          0          0          0   entry10a.o
         0          0          0          0          0          0   entry11a.o
         8          4          0          0          0          0   entry2.o
         4          0          0          0          0          0   entry5.o
         0          0          0          0          0          0   entry7b.o
         0          0          0          0          0          0   entry8b.o
         8          4          0          0          0          0   entry9a.o
        12          6          0          4          0         68   errno.o
        18          0          0          0          0         80   fputc.o
        30          0          0          0          0          0   handlers.o
        36          8          0          0          0         68   init.o
         0          0          0          0          0          0   iusefp.o
         0          0          0          0          0          0   iusesemip.o
        30          0          0          0          0         68   llshl.o
        36          0          0          0          0         68   llsshr.o
        32          0          0          0          0         68   llushr.o
        64          0          0          0          0         76   memmovea.o
        36          0          0          0          0        108   memseta.o
       736         56          0          0          0        184   printf5.o
         0          0          0          0          0          0   semi.o
         0          0          0          4          0          0   stdout.o
        98          0          0          0          0         92   uldiv.o
        48          0          0          0          0         68   cdrcmple.o
       334          0          0          0          0        148   dadd.o
       222          0          0          0          0        100   ddiv.o
       186          0          0          0          0        176   depilogue.o
        74          0          0          0          0         80   dfixl.o
        48          0          0          0          0         68   dfixul.o
        34          0          0          0          0         76   dflti.o
        40          0          0          0          0         80   dfltl.o
       228          0          0          0          0         96   dmul.o
        46          0          0          0          0         80   dscalb.o
       162          0          0          0          0        100   dsqrt.o

    ----------------------------------------------------------------------
     22882        570       6184          8          0     244086   Library Totals
        32          0          0          0          0          0   (incl. Padding)

    ----------------------------------------------------------------------

      Code (inc. data)   RO Data    RW Data    ZI Data      Debug   Library Name

     16558        146       6040          0          0     240610   Sha256.lib
      3722        346        144          0          0       1524   m_wm.l
      1148         78          0          8          0        880   mc_w.l
      1422          0          0          0          0       1072   mf_w.l

    ----------------------------------------------------------------------
     22882        570       6184          8          0     244086   Library Totals

    ----------------------------------------------------------------------

==============================================================================


      Code (inc. data)   RO Data    RW Data    ZI Data      Debug   

     37760       1606       7440         32      12896     946089   Grand Totals
     37760       1606       7440         32      12896     946089   ELF Image Totals
     37760       1606       7440         32          0          0   ROM Totals

==============================================================================

    Total RO  Size (Code + RO Data)                45200 (  44.14kB)
    Total RW  Size (RW Data + ZI Data)             12928 (  12.63kB)
    Total ROM Size (Code + RO Data + RW Data)      45232 (  44.17kB)

==============================================================================

